
../build/fpga/sw/logo.elf:     file format elf32-littleriscv


Disassembly of section .text:

01000000 <loop-0x84>:
 1000000:	29c0006f          	j	100029c <reset_handler>
 1000004:	0840006f          	j	1000088 <default_handler>
 1000008:	0800006f          	j	1000088 <default_handler>
 100000c:	07c0006f          	j	1000088 <default_handler>
 1000010:	0780006f          	j	1000088 <default_handler>
 1000014:	0740006f          	j	1000088 <default_handler>
 1000018:	0700006f          	j	1000088 <default_handler>
 100001c:	06c0006f          	j	1000088 <default_handler>
 1000020:	0680006f          	j	1000088 <default_handler>
 1000024:	0640006f          	j	1000088 <default_handler>
 1000028:	0600006f          	j	1000088 <default_handler>
 100002c:	05c0006f          	j	1000088 <default_handler>
 1000030:	0580006f          	j	1000088 <default_handler>
 1000034:	0540006f          	j	1000088 <default_handler>
 1000038:	0500006f          	j	1000088 <default_handler>
 100003c:	04c0006f          	j	1000088 <default_handler>
 1000040:	0480006f          	j	1000088 <default_handler>
 1000044:	0440006f          	j	1000088 <default_handler>
 1000048:	0400006f          	j	1000088 <default_handler>
 100004c:	03c0006f          	j	1000088 <default_handler>
 1000050:	0380006f          	j	1000088 <default_handler>
 1000054:	0340006f          	j	1000088 <default_handler>
 1000058:	0300006f          	j	1000088 <default_handler>
 100005c:	02c0006f          	j	1000088 <default_handler>
 1000060:	0280006f          	j	1000088 <default_handler>
 1000064:	0240006f          	j	1000088 <default_handler>
 1000068:	0200006f          	j	1000088 <default_handler>
 100006c:	01c0006f          	j	1000088 <default_handler>
 1000070:	0180006f          	j	1000088 <default_handler>
 1000074:	0140006f          	j	1000088 <default_handler>
 1000078:	0100006f          	j	1000088 <default_handler>
 100007c:	00c0006f          	j	1000088 <default_handler>
 1000080:	21c0006f          	j	100029c <reset_handler>

01000084 <loop>:
 1000084:	0000006f          	j	1000084 <loop>

01000088 <default_handler>:
 1000088:	30200073          	mret

0100008c <uart_init>:
 100008c:	7179                	addi	sp,sp,-48
 100008e:	d622                	sw	s0,44(sp)
 1000090:	1800                	addi	s0,sp,48
 1000092:	fca42e23          	sw	a0,-36(s0)
 1000096:	fcb42c23          	sw	a1,-40(s0)
 100009a:	fd842783          	lw	a5,-40(s0)
 100009e:	0792                	slli	a5,a5,0x4
 10000a0:	fdc42703          	lw	a4,-36(s0)
 10000a4:	02f757b3          	divu	a5,a4,a5
 10000a8:	fef42623          	sw	a5,-20(s0)
 10000ac:	010307b7          	lui	a5,0x1030
 10000b0:	10878793          	addi	a5,a5,264 # 1030108 <stack+0x1f448>
 10000b4:	0007a023          	sw	zero,0(a5)
 10000b8:	010307b7          	lui	a5,0x1030
 10000bc:	10c78793          	addi	a5,a5,268 # 103010c <stack+0x1f44c>
 10000c0:	08000713          	li	a4,128
 10000c4:	c398                	sw	a4,0(a5)
 10000c6:	010307b7          	lui	a5,0x1030
 10000ca:	10078793          	addi	a5,a5,256 # 1030100 <stack+0x1f440>
 10000ce:	fec42703          	lw	a4,-20(s0)
 10000d2:	c398                	sw	a4,0(a5)
 10000d4:	fec42783          	lw	a5,-20(s0)
 10000d8:	0087d713          	srli	a4,a5,0x8
 10000dc:	010307b7          	lui	a5,0x1030
 10000e0:	10478793          	addi	a5,a5,260 # 1030104 <stack+0x1f444>
 10000e4:	0ff77713          	andi	a4,a4,255
 10000e8:	c398                	sw	a4,0(a5)
 10000ea:	010307b7          	lui	a5,0x1030
 10000ee:	10c78793          	addi	a5,a5,268 # 103010c <stack+0x1f44c>
 10000f2:	470d                	li	a4,3
 10000f4:	c398                	sw	a4,0(a5)
 10000f6:	010307b7          	lui	a5,0x1030
 10000fa:	10878793          	addi	a5,a5,264 # 1030108 <stack+0x1f448>
 10000fe:	0c700713          	li	a4,199
 1000102:	c398                	sw	a4,0(a5)
 1000104:	010307b7          	lui	a5,0x1030
 1000108:	11078793          	addi	a5,a5,272 # 1030110 <stack+0x1f450>
 100010c:	02000713          	li	a4,32
 1000110:	c398                	sw	a4,0(a5)
 1000112:	0001                	nop
 1000114:	5432                	lw	s0,44(sp)
 1000116:	6145                	addi	sp,sp,48
 1000118:	8082                	ret

0100011a <is_transmit_empty>:
 100011a:	1141                	addi	sp,sp,-16
 100011c:	c622                	sw	s0,12(sp)
 100011e:	0800                	addi	s0,sp,16
 1000120:	010307b7          	lui	a5,0x1030
 1000124:	11478793          	addi	a5,a5,276 # 1030114 <stack+0x1f454>
 1000128:	439c                	lw	a5,0(a5)
 100012a:	0207f793          	andi	a5,a5,32
 100012e:	853e                	mv	a0,a5
 1000130:	4432                	lw	s0,12(sp)
 1000132:	0141                	addi	sp,sp,16
 1000134:	8082                	ret

01000136 <write_serial>:
 1000136:	1101                	addi	sp,sp,-32
 1000138:	ce06                	sw	ra,28(sp)
 100013a:	cc22                	sw	s0,24(sp)
 100013c:	1000                	addi	s0,sp,32
 100013e:	87aa                	mv	a5,a0
 1000140:	fef407a3          	sb	a5,-17(s0)
 1000144:	0001                	nop
 1000146:	3fd1                	jal	100011a <is_transmit_empty>
 1000148:	87aa                	mv	a5,a0
 100014a:	dff5                	beqz	a5,1000146 <write_serial+0x10>
 100014c:	010307b7          	lui	a5,0x1030
 1000150:	10078793          	addi	a5,a5,256 # 1030100 <stack+0x1f440>
 1000154:	fef44703          	lbu	a4,-17(s0)
 1000158:	c398                	sw	a4,0(a5)
 100015a:	0001                	nop
 100015c:	40f2                	lw	ra,28(sp)
 100015e:	4462                	lw	s0,24(sp)
 1000160:	6105                	addi	sp,sp,32
 1000162:	8082                	ret

01000164 <uart_print>:
 1000164:	7179                	addi	sp,sp,-48
 1000166:	d606                	sw	ra,44(sp)
 1000168:	d422                	sw	s0,40(sp)
 100016a:	1800                	addi	s0,sp,48
 100016c:	fca42e23          	sw	a0,-36(s0)
 1000170:	fe042623          	sw	zero,-20(s0)
 1000174:	a839                	j	1000192 <uart_print+0x2e>
 1000176:	fec42783          	lw	a5,-20(s0)
 100017a:	fdc42703          	lw	a4,-36(s0)
 100017e:	97ba                	add	a5,a5,a4
 1000180:	0007c783          	lbu	a5,0(a5)
 1000184:	853e                	mv	a0,a5
 1000186:	3f45                	jal	1000136 <write_serial>
 1000188:	fec42783          	lw	a5,-20(s0)
 100018c:	0785                	addi	a5,a5,1
 100018e:	fef42623          	sw	a5,-20(s0)
 1000192:	fec42783          	lw	a5,-20(s0)
 1000196:	fdc42703          	lw	a4,-36(s0)
 100019a:	97ba                	add	a5,a5,a4
 100019c:	0007c783          	lbu	a5,0(a5)
 10001a0:	fbf9                	bnez	a5,1000176 <uart_print+0x12>
 10001a2:	0001                	nop
 10001a4:	50b2                	lw	ra,44(sp)
 10001a6:	5422                	lw	s0,40(sp)
 10001a8:	6145                	addi	sp,sp,48
 10001aa:	8082                	ret

010001ac <wait>:
 10001ac:	7179                	addi	sp,sp,-48
 10001ae:	d622                	sw	s0,44(sp)
 10001b0:	1800                	addi	s0,sp,48
 10001b2:	fca42e23          	sw	a0,-36(s0)
 10001b6:	fe042623          	sw	zero,-20(s0)
 10001ba:	a039                	j	10001c8 <wait+0x1c>
 10001bc:	0001                	nop
 10001be:	fec42783          	lw	a5,-20(s0)
 10001c2:	0785                	addi	a5,a5,1
 10001c4:	fef42623          	sw	a5,-20(s0)
 10001c8:	fec42703          	lw	a4,-20(s0)
 10001cc:	fdc42783          	lw	a5,-36(s0)
 10001d0:	fef746e3          	blt	a4,a5,10001bc <wait+0x10>
 10001d4:	4781                	li	a5,0
 10001d6:	853e                	mv	a0,a5
 10001d8:	5432                	lw	s0,44(sp)
 10001da:	6145                	addi	sp,sp,48
 10001dc:	8082                	ret

010001de <main>:
 10001de:	1101                	addi	sp,sp,-32
 10001e0:	ce06                	sw	ra,28(sp)
 10001e2:	cc22                	sw	s0,24(sp)
 10001e4:	1000                	addi	s0,sp,32
 10001e6:	03000793          	li	a5,48
 10001ea:	fef42223          	sw	a5,-28(s0)
 10001ee:	67f1                	lui	a5,0x1c
 10001f0:	20078593          	addi	a1,a5,512 # 1c200 <STACK_SIZE+0x1b600>
 10001f4:	017d87b7          	lui	a5,0x17d8
 10001f8:	84078513          	addi	a0,a5,-1984 # 17d7840 <stack+0x7c6b80>
 10001fc:	3d41                	jal	100008c <uart_init>
 10001fe:	010017b7          	lui	a5,0x1001
 1000202:	39478513          	addi	a0,a5,916 # 1001394 <_etext+0x10cc>
 1000206:	3fb9                	jal	1000164 <uart_print>
 1000208:	010017b7          	lui	a5,0x1001
 100020c:	39478513          	addi	a0,a5,916 # 1001394 <_etext+0x10cc>
 1000210:	3f91                	jal	1000164 <uart_print>
 1000212:	010017b7          	lui	a5,0x1001
 1000216:	39478513          	addi	a0,a5,916 # 1001394 <_etext+0x10cc>
 100021a:	37a9                	jal	1000164 <uart_print>
 100021c:	010017b7          	lui	a5,0x1001
 1000220:	39878513          	addi	a0,a5,920 # 1001398 <_etext+0x10d0>
 1000224:	3781                	jal	1000164 <uart_print>
 1000226:	67e1                	lui	a5,0x18
 1000228:	6a078513          	addi	a0,a5,1696 # 186a0 <STACK_SIZE+0x17aa0>
 100022c:	3741                	jal	10001ac <wait>
 100022e:	fe042623          	sw	zero,-20(s0)
 1000232:	a035                	j	100025e <main+0x80>
 1000234:	010107b7          	lui	a5,0x1010
 1000238:	fec42703          	lw	a4,-20(s0)
 100023c:	070a                	slli	a4,a4,0x2
 100023e:	00078793          	mv	a5,a5
 1000242:	97ba                	add	a5,a5,a4
 1000244:	439c                	lw	a5,0(a5)
 1000246:	853e                	mv	a0,a5
 1000248:	3f31                	jal	1000164 <uart_print>
 100024a:	010017b7          	lui	a5,0x1001
 100024e:	39478513          	addi	a0,a5,916 # 1001394 <_etext+0x10cc>
 1000252:	3f09                	jal	1000164 <uart_print>
 1000254:	fec42783          	lw	a5,-20(s0)
 1000258:	0785                	addi	a5,a5,1
 100025a:	fef42623          	sw	a5,-20(s0)
 100025e:	fec42703          	lw	a4,-20(s0)
 1000262:	fe442783          	lw	a5,-28(s0)
 1000266:	fcf747e3          	blt	a4,a5,1000234 <main+0x56>
 100026a:	000f47b7          	lui	a5,0xf4
 100026e:	24078513          	addi	a0,a5,576 # f4240 <STACK_SIZE+0xf3640>
 1000272:	3f2d                	jal	10001ac <wait>
 1000274:	fe042423          	sw	zero,-24(s0)
 1000278:	a819                	j	100028e <main+0xb0>
 100027a:	010017b7          	lui	a5,0x1001
 100027e:	39478513          	addi	a0,a5,916 # 1001394 <_etext+0x10cc>
 1000282:	35cd                	jal	1000164 <uart_print>
 1000284:	fe842783          	lw	a5,-24(s0)
 1000288:	0785                	addi	a5,a5,1
 100028a:	fef42423          	sw	a5,-24(s0)
 100028e:	fe842703          	lw	a4,-24(s0)
 1000292:	fe442783          	lw	a5,-28(s0)
 1000296:	fef742e3          	blt	a4,a5,100027a <main+0x9c>
 100029a:	bf51                	j	100022e <main+0x50>

0100029c <reset_handler>:
 100029c:	00011117          	auipc	sp,0x11
 10002a0:	a2410113          	addi	sp,sp,-1500 # 1010cc0 <stack>
 10002a4:	00000097          	auipc	ra,0x0
 10002a8:	00c08093          	addi	ra,ra,12 # 10002b0 <postMain>
 10002ac:	f33ff06f          	j	10001de <main>

010002b0 <postMain>:
 10002b0:	010202b7          	lui	t0,0x1020
 10002b4:	38028293          	addi	t0,t0,896 # 1020380 <stack+0xf6c0>
 10002b8:	80000337          	lui	t1,0x80000
 10002bc:	00656533          	or	a0,a0,t1
 10002c0:	00a2a023          	sw	a0,0(t0)

010002c4 <changeStack>:
 10002c4:	8132                	mv	sp,a2
 10002c6:	8582                	jr	a1

010002c8 <_etext>:
 10002c8:	2020                	fld	fs0,64(s0)
 10002ca:	2020                	fld	fs0,64(s0)
 10002cc:	2020                	fld	fs0,64(s0)
 10002ce:	2020                	fld	fs0,64(s0)
 10002d0:	2020                	fld	fs0,64(s0)
 10002d2:	2020                	fld	fs0,64(s0)
 10002d4:	2020                	fld	fs0,64(s0)
 10002d6:	2020                	fld	fs0,64(s0)
 10002d8:	2020                	fld	fs0,64(s0)
 10002da:	3d20                	fld	fs0,120(a0)
 10002dc:	20202e2b          	p.sw	sp,540(zero!) # 21c <__DYNAMIC+0x21c>
 10002e0:	2b20                	fld	fs0,80(a4)
 10002e2:	2020202b          	p.sw	sp,512(zero!) # 200 <__DYNAMIC+0x200>
 10002e6:	2b3a                	fld	fs6,392(sp)
 10002e8:	202e                	fld	ft0,200(sp)
 10002ea:	2020                	fld	fs0,64(s0)
 10002ec:	20202b2b          	p.sw	sp,534(zero!) # 216 <__DYNAMIC+0x216>
 10002f0:	2e20                	fld	fs0,88(a2)
 10002f2:	20202e2b          	p.sw	sp,540(zero!) # 21c <__DYNAMIC+0x21c>
 10002f6:	2b20                	fld	fs0,80(a4)
 10002f8:	2020202b          	p.sw	sp,512(zero!) # 200 <__DYNAMIC+0x200>
 10002fc:	2b2e                	fld	fs6,200(sp)
 10002fe:	203a                	fld	ft0,392(sp)
 1000300:	2020                	fld	fs0,64(s0)
 1000302:	2b3d                	jal	1000840 <_etext+0x578>
 1000304:	2020                	fld	fs0,64(s0)
 1000306:	2e20                	fld	fs0,88(a2)
 1000308:	20203d2b          	0x20203d2b
 100030c:	3d20                	fld	fs0,120(a0)
 100030e:	2020202b          	p.sw	sp,512(zero!) # 200 <__DYNAMIC+0x200>
 1000312:	2b20                	fld	fs0,80(a4)
 1000314:	203d                	jal	1000342 <_etext+0x7a>
 1000316:	2020                	fld	fs0,64(s0)
 1000318:	2020                	fld	fs0,64(s0)
 100031a:	2020                	fld	fs0,64(s0)
 100031c:	2020                	fld	fs0,64(s0)
 100031e:	2020                	fld	fs0,64(s0)
 1000320:	2020                	fld	fs0,64(s0)
 1000322:	2020                	fld	fs0,64(s0)
 1000324:	2020                	fld	fs0,64(s0)
 1000326:	2020                	fld	fs0,64(s0)
 1000328:	0000                	unimp
 100032a:	0000                	unimp
 100032c:	2020                	fld	fs0,64(s0)
 100032e:	2020                	fld	fs0,64(s0)
 1000330:	2020                	fld	fs0,64(s0)
 1000332:	2020                	fld	fs0,64(s0)
 1000334:	2020                	fld	fs0,64(s0)
 1000336:	2020                	fld	fs0,64(s0)
 1000338:	2020                	fld	fs0,64(s0)
 100033a:	2020                	fld	fs0,64(s0)
 100033c:	2020                	fld	fs0,64(s0)
 100033e:	2320                	fld	fs0,64(a4)
 1000340:	20202d23          	sw	sp,538(zero) # 21a <__DYNAMIC+0x21a>
 1000344:	2320                	fld	fs0,64(a4)
 1000346:	20202023          	sw	sp,512(zero) # 200 <__DYNAMIC+0x200>
 100034a:	232d                	jal	1000874 <_etext+0x5ac>
 100034c:	202d                	jal	1000376 <_etext+0xae>
 100034e:	2020                	fld	fs0,64(s0)
 1000350:	20202323          	sw	sp,518(zero) # 206 <__DYNAMIC+0x206>
 1000354:	3a20                	fld	fs0,112(a2)
 1000356:	20203a23          	0x20203a23
 100035a:	2320                	fld	fs0,64(a4)
 100035c:	20202023          	sw	sp,512(zero) # 200 <__DYNAMIC+0x200>
 1000360:	233a                	fld	ft6,392(sp)
 1000362:	203d                	jal	1000390 <_etext+0xc8>
 1000364:	2020                	fld	fs0,64(s0)
 1000366:	202e2323          	sw	sp,518(t3)
 100036a:	3a20                	fld	fs0,112(a2)
 100036c:	20202323          	sw	sp,518(zero) # 206 <__DYNAMIC+0x206>
 1000370:	2a20                	fld	fs0,80(a2)
 1000372:	20202023          	sw	sp,512(zero) # 200 <__DYNAMIC+0x200>
 1000376:	232e                	fld	ft6,200(sp)
 1000378:	20202023          	sw	sp,512(zero) # 200 <__DYNAMIC+0x200>
 100037c:	2020                	fld	fs0,64(s0)
 100037e:	2020                	fld	fs0,64(s0)
 1000380:	2020                	fld	fs0,64(s0)
 1000382:	2020                	fld	fs0,64(s0)
 1000384:	2020                	fld	fs0,64(s0)
 1000386:	2020                	fld	fs0,64(s0)
 1000388:	2020                	fld	fs0,64(s0)
 100038a:	2020                	fld	fs0,64(s0)
 100038c:	0000                	unimp
 100038e:	0000                	unimp
 1000390:	2020                	fld	fs0,64(s0)
 1000392:	2020                	fld	fs0,64(s0)
 1000394:	2020                	fld	fs0,64(s0)
 1000396:	2020                	fld	fs0,64(s0)
 1000398:	2020                	fld	fs0,64(s0)
 100039a:	2020                	fld	fs0,64(s0)
 100039c:	2020                	fld	fs0,64(s0)
 100039e:	3a20                	fld	fs0,112(a2)
 10003a0:	3a3a                	fld	fs4,424(sp)
 10003a2:	233a                	fld	ft6,392(sp)
 10003a4:	3a3a3d23          	0x3a3a3d23
 10003a8:	232d                	jal	10008d2 <_etext+0x60a>
 10003aa:	3a3a3a23          	0x3a3a3a23
 10003ae:	233d                	jal	10008dc <_etext+0x614>
 10003b0:	3a3d                	jal	fffcee <STACK_SIZE+0xfff0ee>
 10003b2:	3a3a                	fld	fs4,424(sp)
 10003b4:	3a3a2323          	sw	gp,934(s4)
 10003b8:	3d3a                	fld	fs10,424(sp)
 10003ba:	3a3a3d23          	0x3a3a3d23
 10003be:	233a                	fld	ft6,392(sp)
 10003c0:	3a3a3a23          	0x3a3a3a23
 10003c4:	233d                	jal	10008f2 <_etext+0x62a>
 10003c6:	3a3a3a2b          	0x3a3a3a2b
 10003ca:	3a2d2323          	sw	sp,934(s10)
 10003ce:	3d3a                	fld	fs10,424(sp)
 10003d0:	3a3a2323          	sw	gp,934(s4)
 10003d4:	2a3a                	fld	fs4,392(sp)
 10003d6:	3a3a2d23          	sw	gp,954(s4)
 10003da:	232d                	jal	1000904 <_etext+0x63c>
 10003dc:	3a3a3a23          	0x3a3a3a23
 10003e0:	203a                	fld	ft0,392(sp)
 10003e2:	2020                	fld	fs0,64(s0)
 10003e4:	2020                	fld	fs0,64(s0)
 10003e6:	2020                	fld	fs0,64(s0)
 10003e8:	2020                	fld	fs0,64(s0)
 10003ea:	2020                	fld	fs0,64(s0)
 10003ec:	2020                	fld	fs0,64(s0)
 10003ee:	2020                	fld	fs0,64(s0)
 10003f0:	0000                	unimp
 10003f2:	0000                	unimp
 10003f4:	2020                	fld	fs0,64(s0)
 10003f6:	2020                	fld	fs0,64(s0)
 10003f8:	2020                	fld	fs0,64(s0)
 10003fa:	2020                	fld	fs0,64(s0)
 10003fc:	2020                	fld	fs0,64(s0)
 10003fe:	2020                	fld	fs0,64(s0)
 1000400:	233d                	jal	100092e <_etext+0x666>
 1000402:	23232323          	sw	s2,550(t1) # 80000226 <pulp__FC+0x80000227>
 1000406:	23232323          	sw	s2,550(t1)
 100040a:	23232323          	sw	s2,550(t1)
 100040e:	23232323          	sw	s2,550(t1)
 1000412:	23232323          	sw	s2,550(t1)
 1000416:	23232323          	sw	s2,550(t1)
 100041a:	23232323          	sw	s2,550(t1)
 100041e:	23232323          	sw	s2,550(t1)
 1000422:	23232323          	sw	s2,550(t1)
 1000426:	23232323          	sw	s2,550(t1)
 100042a:	23232323          	sw	s2,550(t1)
 100042e:	23232323          	sw	s2,550(t1)
 1000432:	23232323          	sw	s2,550(t1)
 1000436:	23232323          	sw	s2,550(t1)
 100043a:	23232323          	sw	s2,550(t1)
 100043e:	23232323          	sw	s2,550(t1)
 1000442:	23232323          	sw	s2,550(t1)
 1000446:	20203d23          	0x20203d23
 100044a:	2020                	fld	fs0,64(s0)
 100044c:	2020                	fld	fs0,64(s0)
 100044e:	2020                	fld	fs0,64(s0)
 1000450:	2020                	fld	fs0,64(s0)
 1000452:	2020                	fld	fs0,64(s0)
 1000454:	0000                	unimp
 1000456:	0000                	unimp
 1000458:	2020                	fld	fs0,64(s0)
 100045a:	2020                	fld	fs0,64(s0)
 100045c:	2020                	fld	fs0,64(s0)
 100045e:	2020                	fld	fs0,64(s0)
 1000460:	2020                	fld	fs0,64(s0)
 1000462:	232d                	jal	100098c <_etext+0x6c4>
 1000464:	23232323          	sw	s2,550(t1)
 1000468:	3a3a3a2b          	0x3a3a3a2b
 100046c:	3a3a                	fld	fs4,424(sp)
 100046e:	3a3a                	fld	fs4,424(sp)
 1000470:	3a3a                	fld	fs4,424(sp)
 1000472:	3a3a                	fld	fs4,424(sp)
 1000474:	3a3a                	fld	fs4,424(sp)
 1000476:	3a3a                	fld	fs4,424(sp)
 1000478:	3a3a                	fld	fs4,424(sp)
 100047a:	3a3a                	fld	fs4,424(sp)
 100047c:	3a3a                	fld	fs4,424(sp)
 100047e:	3a3a                	fld	fs4,424(sp)
 1000480:	3a3a                	fld	fs4,424(sp)
 1000482:	3a3a                	fld	fs4,424(sp)
 1000484:	3a3a                	fld	fs4,424(sp)
 1000486:	3a3a                	fld	fs4,424(sp)
 1000488:	3a3a                	fld	fs4,424(sp)
 100048a:	3a3a                	fld	fs4,424(sp)
 100048c:	3a3a                	fld	fs4,424(sp)
 100048e:	3a3a                	fld	fs4,424(sp)
 1000490:	3a3a                	fld	fs4,424(sp)
 1000492:	3a3a                	fld	fs4,424(sp)
 1000494:	3a3a                	fld	fs4,424(sp)
 1000496:	3a3a                	fld	fs4,424(sp)
 1000498:	3a3a                	fld	fs4,424(sp)
 100049a:	3a3a                	fld	fs4,424(sp)
 100049c:	3a3a                	fld	fs4,424(sp)
 100049e:	3a3a                	fld	fs4,424(sp)
 10004a0:	3a3a                	fld	fs4,424(sp)
 10004a2:	3a3a                	fld	fs4,424(sp)
 10004a4:	3a3a                	fld	fs4,424(sp)
 10004a6:	3d3a                	fld	fs10,424(sp)
 10004a8:	23232323          	sw	s2,550(t1)
 10004ac:	20203d23          	0x20203d23
 10004b0:	2020                	fld	fs0,64(s0)
 10004b2:	2020                	fld	fs0,64(s0)
 10004b4:	2020                	fld	fs0,64(s0)
 10004b6:	2020                	fld	fs0,64(s0)
 10004b8:	0000                	unimp
 10004ba:	0000                	unimp
 10004bc:	2020                	fld	fs0,64(s0)
 10004be:	2020                	fld	fs0,64(s0)
 10004c0:	2020                	fld	fs0,64(s0)
 10004c2:	2020                	fld	fs0,64(s0)
 10004c4:	2d20                	fld	fs0,88(a0)
 10004c6:	23232323          	sw	s2,550(t1)
 10004ca:	2020                	fld	fs0,64(s0)
 10004cc:	2020                	fld	fs0,64(s0)
 10004ce:	2020                	fld	fs0,64(s0)
 10004d0:	2020                	fld	fs0,64(s0)
 10004d2:	2020                	fld	fs0,64(s0)
 10004d4:	2020                	fld	fs0,64(s0)
 10004d6:	2020                	fld	fs0,64(s0)
 10004d8:	2020                	fld	fs0,64(s0)
 10004da:	2020                	fld	fs0,64(s0)
 10004dc:	2020                	fld	fs0,64(s0)
 10004de:	2020                	fld	fs0,64(s0)
 10004e0:	2020                	fld	fs0,64(s0)
 10004e2:	2020                	fld	fs0,64(s0)
 10004e4:	2020                	fld	fs0,64(s0)
 10004e6:	2020                	fld	fs0,64(s0)
 10004e8:	2020                	fld	fs0,64(s0)
 10004ea:	2020                	fld	fs0,64(s0)
 10004ec:	2020                	fld	fs0,64(s0)
 10004ee:	2020                	fld	fs0,64(s0)
 10004f0:	2020                	fld	fs0,64(s0)
 10004f2:	2020                	fld	fs0,64(s0)
 10004f4:	2020                	fld	fs0,64(s0)
 10004f6:	2020                	fld	fs0,64(s0)
 10004f8:	2020                	fld	fs0,64(s0)
 10004fa:	2020                	fld	fs0,64(s0)
 10004fc:	2020                	fld	fs0,64(s0)
 10004fe:	2020                	fld	fs0,64(s0)
 1000500:	2020                	fld	fs0,64(s0)
 1000502:	2020                	fld	fs0,64(s0)
 1000504:	2020                	fld	fs0,64(s0)
 1000506:	2020                	fld	fs0,64(s0)
 1000508:	2020                	fld	fs0,64(s0)
 100050a:	2020                	fld	fs0,64(s0)
 100050c:	2020                	fld	fs0,64(s0)
 100050e:	23232323          	sw	s2,550(t1)
 1000512:	2020202b          	p.sw	sp,512(zero!) # 200 <__DYNAMIC+0x200>
 1000516:	2020                	fld	fs0,64(s0)
 1000518:	2020                	fld	fs0,64(s0)
 100051a:	2020                	fld	fs0,64(s0)
 100051c:	0000                	unimp
 100051e:	0000                	unimp
 1000520:	2020                	fld	fs0,64(s0)
 1000522:	2020                	fld	fs0,64(s0)
 1000524:	2020                	fld	fs0,64(s0)
 1000526:	2020                	fld	fs0,64(s0)
 1000528:	2320                	fld	fs0,64(a4)
 100052a:	20232323          	sw	sp,518(t1)
 100052e:	2020                	fld	fs0,64(s0)
 1000530:	2b20                	fld	fs0,80(a4)
 1000532:	23232323          	sw	s2,550(t1)
 1000536:	23232323          	sw	s2,550(t1)
 100053a:	23232323          	sw	s2,550(t1)
 100053e:	23232323          	sw	s2,550(t1)
 1000542:	23232323          	sw	s2,550(t1)
 1000546:	23232323          	sw	s2,550(t1)
 100054a:	23232323          	sw	s2,550(t1)
 100054e:	23232323          	sw	s2,550(t1)
 1000552:	23232323          	sw	s2,550(t1)
 1000556:	23232323          	sw	s2,550(t1)
 100055a:	23232323          	sw	s2,550(t1)
 100055e:	23232323          	sw	s2,550(t1)
 1000562:	23232323          	sw	s2,550(t1)
 1000566:	23232323          	sw	s2,550(t1)
 100056a:	23232323          	sw	s2,550(t1)
 100056e:	202a                	fld	ft0,136(sp)
 1000570:	2020                	fld	fs0,64(s0)
 1000572:	2320                	fld	fs0,64(a4)
 1000574:	20232323          	sw	sp,518(t1)
 1000578:	2020                	fld	fs0,64(s0)
 100057a:	2020                	fld	fs0,64(s0)
 100057c:	2020                	fld	fs0,64(s0)
 100057e:	2020                	fld	fs0,64(s0)
 1000580:	0000                	unimp
 1000582:	0000                	unimp
 1000584:	3a20                	fld	fs0,112(a2)
 1000586:	3a3a                	fld	fs4,424(sp)
 1000588:	3a3a                	fld	fs4,424(sp)
 100058a:	3a3a                	fld	fs4,424(sp)
 100058c:	233a                	fld	ft6,392(sp)
 100058e:	20232323          	sw	sp,518(t1)
 1000592:	2020                	fld	fs0,64(s0)
 1000594:	23232323          	sw	s2,550(t1)
 1000598:	23232323          	sw	s2,550(t1)
 100059c:	23232323          	sw	s2,550(t1)
 10005a0:	23232323          	sw	s2,550(t1)
 10005a4:	23232323          	sw	s2,550(t1)
 10005a8:	23232323          	sw	s2,550(t1)
 10005ac:	23232323          	sw	s2,550(t1)
 10005b0:	23232323          	sw	s2,550(t1)
 10005b4:	23232323          	sw	s2,550(t1)
 10005b8:	23232323          	sw	s2,550(t1)
 10005bc:	23232323          	sw	s2,550(t1)
 10005c0:	23232323          	sw	s2,550(t1)
 10005c4:	23232323          	sw	s2,550(t1)
 10005c8:	23232323          	sw	s2,550(t1)
 10005cc:	23232323          	sw	s2,550(t1)
 10005d0:	23232323          	sw	s2,550(t1)
 10005d4:	202e                	fld	ft0,200(sp)
 10005d6:	2320                	fld	fs0,64(a4)
 10005d8:	3a232323          	sw	sp,934(t1)
 10005dc:	3a3a                	fld	fs4,424(sp)
 10005de:	3a3a                	fld	fs4,424(sp)
 10005e0:	3a3a                	fld	fs4,424(sp)
 10005e2:	203a                	fld	ft0,392(sp)
 10005e4:	0000                	unimp
 10005e6:	0000                	unimp
 10005e8:	2b3a                	fld	fs6,392(sp)
 10005ea:	2b2b2b2b          	p.sw	s2,694(s6!)
 10005ee:	232b2b2b          	p.sw	s2,566(s6!)
 10005f2:	20232323          	sw	sp,518(t1)
 10005f6:	2d20                	fld	fs0,88(a0)
 10005f8:	23232323          	sw	s2,550(t1)
 10005fc:	23232323          	sw	s2,550(t1)
 1000600:	23232323          	sw	s2,550(t1)
 1000604:	23232323          	sw	s2,550(t1)
 1000608:	23232323          	sw	s2,550(t1)
 100060c:	23232323          	sw	s2,550(t1)
 1000610:	23232323          	sw	s2,550(t1)
 1000614:	23232323          	sw	s2,550(t1)
 1000618:	23232323          	sw	s2,550(t1)
 100061c:	23232323          	sw	s2,550(t1)
 1000620:	23232323          	sw	s2,550(t1)
 1000624:	23232323          	sw	s2,550(t1)
 1000628:	23232323          	sw	s2,550(t1)
 100062c:	23232323          	sw	s2,550(t1)
 1000630:	23232323          	sw	s2,550(t1)
 1000634:	23232323          	sw	s2,550(t1)
 1000638:	202d                	jal	1000662 <_etext+0x39a>
 100063a:	2320                	fld	fs0,64(a4)
 100063c:	2b232323          	sw	s2,678(t1)
 1000640:	2b2b2b2b          	p.sw	s2,694(s6!)
 1000644:	2d2b2b2b          	p.sw	s2,726(s6!)
 1000648:	0000                	unimp
 100064a:	0000                	unimp
 100064c:	2020                	fld	fs0,64(s0)
 100064e:	2020                	fld	fs0,64(s0)
 1000650:	2020                	fld	fs0,64(s0)
 1000652:	2020                	fld	fs0,64(s0)
 1000654:	2320                	fld	fs0,64(a4)
 1000656:	20232323          	sw	sp,518(t1)
 100065a:	2d20                	fld	fs0,88(a0)
 100065c:	23232323          	sw	s2,550(t1)
 1000660:	3a3a2a23          	sw	gp,948(s4)
 1000664:	3a3a                	fld	fs4,424(sp)
 1000666:	2323232b          	p.sw	s2,550(t1!)
 100066a:	203a2323          	sw	gp,518(s4)
 100066e:	23232323          	sw	s2,550(t1)
 1000672:	23232323          	sw	s2,550(t1)
 1000676:	23232323          	sw	s2,550(t1)
 100067a:	3d2d                	jal	10004b4 <_etext+0x1ec>
 100067c:	3d232323          	sw	s2,966(t1)
 1000680:	3a3a                	fld	fs4,424(sp)
 1000682:	3a3a                	fld	fs4,424(sp)
 1000684:	203d232b          	p.sw	gp,518(s10!)
 1000688:	232a                	fld	ft6,136(sp)
 100068a:	2d232323          	sw	s2,710(t1)
 100068e:	232e                	fld	ft6,200(sp)
 1000690:	23232323          	sw	s2,550(t1)
 1000694:	23232323          	sw	s2,550(t1)
 1000698:	23232323          	sw	s2,550(t1)
 100069c:	202d                	jal	10006c6 <_etext+0x3fe>
 100069e:	2320                	fld	fs0,64(a4)
 10006a0:	20232323          	sw	sp,518(t1)
 10006a4:	2020                	fld	fs0,64(s0)
 10006a6:	2020                	fld	fs0,64(s0)
 10006a8:	2020                	fld	fs0,64(s0)
 10006aa:	2020                	fld	fs0,64(s0)
 10006ac:	0000                	unimp
 10006ae:	0000                	unimp
 10006b0:	2b2e                	fld	fs6,200(sp)
 10006b2:	2b2b2b2b          	p.sw	s2,694(s6!)
 10006b6:	232b2b2b          	p.sw	s2,566(s6!)
 10006ba:	20232323          	sw	sp,518(t1)
 10006be:	2d20                	fld	fs0,88(a0)
 10006c0:	23232323          	sw	s2,550(t1)
 10006c4:	2d202a23          	sw	s2,724(zero) # 2d4 <__DYNAMIC+0x2d4>
 10006c8:	2a2a                	fld	fs4,136(sp)
 10006ca:	2a232323          	sw	sp,678(t1)
 10006ce:	2b2d                	jal	1000c08 <_etext+0x940>
 10006d0:	203a                	fld	ft0,392(sp)
 10006d2:	232b2323          	sw	s2,550(s6)
 10006d6:	232b2b23          	sw	s2,566(s6)
 10006da:	2e2a2323          	sw	sp,742(s4)
 10006de:	3d2e                	fld	fs10,232(sp)
 10006e0:	20202323          	sw	sp,518(zero) # 206 <__DYNAMIC+0x206>
 10006e4:	2a2a                	fld	fs4,136(sp)
 10006e6:	2a2a                	fld	fs4,136(sp)
 10006e8:	232a                	fld	ft6,136(sp)
 10006ea:	203d                	jal	1000718 <_etext+0x450>
 10006ec:	2d2a                	fld	fs10,136(sp)
 10006ee:	2a23232b          	p.sw	sp,678(t1!)
 10006f2:	233d                	jal	1000c20 <_etext+0x958>
 10006f4:	2b2a2b23          	sw	s2,694(s4)
 10006f8:	232d                	jal	1000c22 <_etext+0x95a>
 10006fa:	23232323          	sw	s2,550(t1)
 10006fe:	202d2323          	sw	sp,518(s10)
 1000702:	2320                	fld	fs0,64(a4)
 1000704:	2b232323          	sw	s2,678(t1)
 1000708:	2b2b2b2b          	p.sw	s2,694(s6!)
 100070c:	3a2b2b2b          	p.sw	sp,950(s6!)
 1000710:	0000                	unimp
 1000712:	0000                	unimp
 1000714:	3d20                	fld	fs0,120(a0)
 1000716:	3d3d                	jal	1000554 <_etext+0x28c>
 1000718:	3d3d                	jal	1000556 <_etext+0x28e>
 100071a:	3d3d                	jal	1000558 <_etext+0x290>
 100071c:	233d                	jal	1000c4a <_etext+0x982>
 100071e:	20232323          	sw	sp,518(t1)
 1000722:	2d20                	fld	fs0,88(a0)
 1000724:	23232323          	sw	s2,550(t1)
 1000728:	20202a23          	sw	sp,532(zero) # 214 <__DYNAMIC+0x214>
 100072c:	3a20                	fld	fs0,112(a2)
 100072e:	20202323          	sw	sp,518(zero) # 206 <__DYNAMIC+0x206>
 1000732:	20202a23          	sw	sp,532(zero) # 214 <__DYNAMIC+0x214>
 1000736:	2a202a23          	sw	sp,692(zero) # 2b4 <__DYNAMIC+0x2b4>
 100073a:	23202023          	sw	s2,544(zero) # 220 <__DYNAMIC+0x220>
 100073e:	232e2d23          	sw	s2,570(t3)
 1000742:	3d2e                	fld	fs10,232(sp)
 1000744:	2e202323          	sw	sp,742(zero) # 2e6 <__DYNAMIC+0x2e6>
 1000748:	23232323          	sw	s2,550(t1)
 100074c:	203d2323          	sw	gp,518(s10)
 1000750:	232a                	fld	ft6,136(sp)
 1000752:	2e20                	fld	fs0,88(a2)
 1000754:	23203a23          	0x23203a23
 1000758:	23202023          	sw	s2,544(zero) # 220 <__DYNAMIC+0x220>
 100075c:	232e2023          	sw	s2,544(t3)
 1000760:	23232323          	sw	s2,550(t1)
 1000764:	202d                	jal	100078e <_etext+0x4c6>
 1000766:	2320                	fld	fs0,64(a4)
 1000768:	3d232323          	sw	s2,966(t1)
 100076c:	3d3d                	jal	10005aa <_etext+0x2e2>
 100076e:	3d3d                	jal	10005ac <_etext+0x2e4>
 1000770:	3d3d                	jal	10005ae <_etext+0x2e6>
 1000772:	2e3d                	jal	1000ab0 <_etext+0x7e8>
 1000774:	0000                	unimp
 1000776:	0000                	unimp
 1000778:	2020                	fld	fs0,64(s0)
 100077a:	2020                	fld	fs0,64(s0)
 100077c:	2020                	fld	fs0,64(s0)
 100077e:	2020                	fld	fs0,64(s0)
 1000780:	2320                	fld	fs0,64(a4)
 1000782:	20232323          	sw	sp,518(t1)
 1000786:	2d20                	fld	fs0,88(a0)
 1000788:	23232323          	sw	s2,550(t1)
 100078c:	2d202a23          	sw	s2,724(zero) # 2d4 <__DYNAMIC+0x2d4>
 1000790:	2a2a                	fld	fs4,136(sp)
 1000792:	232a                	fld	ft6,136(sp)
 1000794:	2020                	fld	fs0,64(s0)
 1000796:	20202b2b          	p.sw	sp,534(zero!) # 216 <__DYNAMIC+0x216>
 100079a:	2d202a23          	sw	s2,724(zero) # 2d4 <__DYNAMIC+0x2d4>
 100079e:	2320202b          	p.sw	s2,544(zero!) # 220 <__DYNAMIC+0x220>
 10007a2:	3a3a                	fld	fs4,424(sp)
 10007a4:	3a3a                	fld	fs4,424(sp)
 10007a6:	3a2e                	fld	fs4,232(sp)
 10007a8:	202e232b          	p.sw	sp,518(t3!)
 10007ac:	2b3a                	fld	fs6,392(sp)
 10007ae:	233d3a2b          	0x233d3a2b
 10007b2:	203d                	jal	10007e0 <_etext+0x518>
 10007b4:	232a                	fld	ft6,136(sp)
 10007b6:	2e20                	fld	fs0,88(a2)
 10007b8:	23203a23          	0x23203a23
 10007bc:	2b2e2023          	sw	s2,672(t3)
 10007c0:	232e202b          	p.sw	s2,544(t3!)
 10007c4:	23232323          	sw	s2,550(t1)
 10007c8:	202d                	jal	10007f2 <_etext+0x52a>
 10007ca:	2320                	fld	fs0,64(a4)
 10007cc:	20232323          	sw	sp,518(t1)
 10007d0:	2020                	fld	fs0,64(s0)
 10007d2:	2020                	fld	fs0,64(s0)
 10007d4:	2020                	fld	fs0,64(s0)
 10007d6:	2020                	fld	fs0,64(s0)
 10007d8:	0000                	unimp
 10007da:	0000                	unimp
 10007dc:	2a3a                	fld	fs4,392(sp)
 10007de:	2a2a                	fld	fs4,136(sp)
 10007e0:	2a2a                	fld	fs4,136(sp)
 10007e2:	2a2a                	fld	fs4,136(sp)
 10007e4:	232a                	fld	ft6,136(sp)
 10007e6:	20232323          	sw	sp,518(t1)
 10007ea:	2d20                	fld	fs0,88(a0)
 10007ec:	23232323          	sw	s2,550(t1)
 10007f0:	2d2d2a23          	sw	s2,724(s10)
 10007f4:	2d2d                	jal	1000e2e <_etext+0xb66>
 10007f6:	2d23232b          	p.sw	s2,710(t1!)
 10007fa:	2d2d                	jal	1000e34 <_etext+0xb6c>
 10007fc:	2d3d                	jal	1000e3a <_etext+0xb72>
 10007fe:	2d2b2323          	sw	s2,710(s6)
 1000802:	2d2d                	jal	1000e3c <_etext+0xb74>
 1000804:	232d                	jal	1000d2e <_etext+0xa66>
 1000806:	23232323          	sw	s2,550(t1)
 100080a:	2b3d                	jal	1000d48 <_etext+0xa80>
 100080c:	23232323          	sw	s2,550(t1)
 1000810:	2d2d                	jal	1000e4a <_etext+0xb82>
 1000812:	3d2d                	jal	100064c <_etext+0x384>
 1000814:	2d2b2323          	sw	s2,710(s6)
 1000818:	2d2d2323          	sw	s2,710(s10)
 100081c:	232d3d23          	0x232d3d23
 1000820:	2d3d2023          	sw	s3,704(s10)
 1000824:	3d2d                	jal	100065e <_etext+0x396>
 1000826:	23232323          	sw	s2,550(t1)
 100082a:	202d2323          	sw	sp,518(s10)
 100082e:	2320                	fld	fs0,64(a4)
 1000830:	2a232323          	sw	sp,678(t1)
 1000834:	2a2a                	fld	fs4,136(sp)
 1000836:	2a2a                	fld	fs4,136(sp)
 1000838:	2a2a                	fld	fs4,136(sp)
 100083a:	2d2a                	fld	fs10,136(sp)
 100083c:	0000                	unimp
 100083e:	0000                	unimp
 1000840:	3a20                	fld	fs0,112(a2)
 1000842:	3a3a                	fld	fs4,424(sp)
 1000844:	3a3a                	fld	fs4,424(sp)
 1000846:	3a3a                	fld	fs4,424(sp)
 1000848:	233a                	fld	ft6,392(sp)
 100084a:	20232323          	sw	sp,518(t1)
 100084e:	2d20                	fld	fs0,88(a0)
 1000850:	23232323          	sw	s2,550(t1)
 1000854:	23232323          	sw	s2,550(t1)
 1000858:	23232323          	sw	s2,550(t1)
 100085c:	23232323          	sw	s2,550(t1)
 1000860:	23232323          	sw	s2,550(t1)
 1000864:	23232323          	sw	s2,550(t1)
 1000868:	23232323          	sw	s2,550(t1)
 100086c:	23232323          	sw	s2,550(t1)
 1000870:	23232323          	sw	s2,550(t1)
 1000874:	23232323          	sw	s2,550(t1)
 1000878:	23232323          	sw	s2,550(t1)
 100087c:	23232323          	sw	s2,550(t1)
 1000880:	23232323          	sw	s2,550(t1)
 1000884:	233d2023          	sw	s3,544(s10)
 1000888:	23232323          	sw	s2,550(t1)
 100088c:	23232323          	sw	s2,550(t1)
 1000890:	202d                	jal	10008ba <_etext+0x5f2>
 1000892:	2320                	fld	fs0,64(a4)
 1000894:	3a232323          	sw	sp,934(t1)
 1000898:	3a3a                	fld	fs4,424(sp)
 100089a:	3a3a                	fld	fs4,424(sp)
 100089c:	3a3a                	fld	fs4,424(sp)
 100089e:	203a                	fld	ft0,392(sp)
 10008a0:	0000                	unimp
 10008a2:	0000                	unimp
 10008a4:	2020                	fld	fs0,64(s0)
 10008a6:	2020                	fld	fs0,64(s0)
 10008a8:	2020                	fld	fs0,64(s0)
 10008aa:	2020                	fld	fs0,64(s0)
 10008ac:	2320                	fld	fs0,64(a4)
 10008ae:	20232323          	sw	sp,518(t1)
 10008b2:	2d20                	fld	fs0,88(a0)
 10008b4:	23232323          	sw	s2,550(t1)
 10008b8:	23232323          	sw	s2,550(t1)
 10008bc:	23232323          	sw	s2,550(t1)
 10008c0:	23232323          	sw	s2,550(t1)
 10008c4:	23232323          	sw	s2,550(t1)
 10008c8:	23232323          	sw	s2,550(t1)
 10008cc:	23232323          	sw	s2,550(t1)
 10008d0:	2e3a2323          	sw	gp,742(s4)
 10008d4:	3a2e                	fld	fs4,232(sp)
 10008d6:	23232323          	sw	s2,550(t1)
 10008da:	23232323          	sw	s2,550(t1)
 10008de:	23232323          	sw	s2,550(t1)
 10008e2:	23232323          	sw	s2,550(t1)
 10008e6:	23232323          	sw	s2,550(t1)
 10008ea:	23232323          	sw	s2,550(t1)
 10008ee:	23232323          	sw	s2,550(t1)
 10008f2:	202d2323          	sw	sp,518(s10)
 10008f6:	2320                	fld	fs0,64(a4)
 10008f8:	20232323          	sw	sp,518(t1)
 10008fc:	2020                	fld	fs0,64(s0)
 10008fe:	2020                	fld	fs0,64(s0)
 1000900:	2020                	fld	fs0,64(s0)
 1000902:	2020                	fld	fs0,64(s0)
 1000904:	0000                	unimp
 1000906:	0000                	unimp
 1000908:	233d                	jal	1000e36 <_etext+0xb6e>
 100090a:	23232323          	sw	s2,550(t1)
 100090e:	23232323          	sw	s2,550(t1)
 1000912:	20232323          	sw	sp,518(t1)
 1000916:	2d20                	fld	fs0,88(a0)
 1000918:	23232323          	sw	s2,550(t1)
 100091c:	23232323          	sw	s2,550(t1)
 1000920:	23232323          	sw	s2,550(t1)
 1000924:	23232323          	sw	s2,550(t1)
 1000928:	23232323          	sw	s2,550(t1)
 100092c:	23232323          	sw	s2,550(t1)
 1000930:	20202e23          	sw	sp,540(zero) # 21c <__DYNAMIC+0x21c>
 1000934:	2020                	fld	fs0,64(s0)
 1000936:	2020                	fld	fs0,64(s0)
 1000938:	2020                	fld	fs0,64(s0)
 100093a:	2020                	fld	fs0,64(s0)
 100093c:	2020                	fld	fs0,64(s0)
 100093e:	232e                	fld	ft6,200(sp)
 1000940:	23232323          	sw	s2,550(t1)
 1000944:	23232323          	sw	s2,550(t1)
 1000948:	23232323          	sw	s2,550(t1)
 100094c:	23232323          	sw	s2,550(t1)
 1000950:	23232323          	sw	s2,550(t1)
 1000954:	23232323          	sw	s2,550(t1)
 1000958:	202d                	jal	1000982 <_etext+0x6ba>
 100095a:	2320                	fld	fs0,64(a4)
 100095c:	23232323          	sw	s2,550(t1)
 1000960:	23232323          	sw	s2,550(t1)
 1000964:	2a232323          	sw	sp,678(t1)
 1000968:	0000                	unimp
 100096a:	0000                	unimp
 100096c:	2020                	fld	fs0,64(s0)
 100096e:	2020                	fld	fs0,64(s0)
 1000970:	2020                	fld	fs0,64(s0)
 1000972:	2020                	fld	fs0,64(s0)
 1000974:	2320                	fld	fs0,64(a4)
 1000976:	20232323          	sw	sp,518(t1)
 100097a:	2d20                	fld	fs0,88(a0)
 100097c:	23232323          	sw	s2,550(t1)
 1000980:	23232323          	sw	s2,550(t1)
 1000984:	23232323          	sw	s2,550(t1)
 1000988:	23232323          	sw	s2,550(t1)
 100098c:	2a2a2323          	sw	sp,678(s4)
 1000990:	202e                	fld	ft0,200(sp)
 1000992:	2020                	fld	fs0,64(s0)
 1000994:	2020                	fld	fs0,64(s0)
 1000996:	2020                	fld	fs0,64(s0)
 1000998:	2020                	fld	fs0,64(s0)
 100099a:	2020                	fld	fs0,64(s0)
 100099c:	2020                	fld	fs0,64(s0)
 100099e:	2020                	fld	fs0,64(s0)
 10009a0:	2020                	fld	fs0,64(s0)
 10009a2:	2020                	fld	fs0,64(s0)
 10009a4:	2020                	fld	fs0,64(s0)
 10009a6:	2e20                	fld	fs0,88(a2)
 10009a8:	23232a2b          	p.sw	s2,564(t1!)
 10009ac:	23232323          	sw	s2,550(t1)
 10009b0:	23232323          	sw	s2,550(t1)
 10009b4:	23232323          	sw	s2,550(t1)
 10009b8:	23232323          	sw	s2,550(t1)
 10009bc:	202d                	jal	10009e6 <_etext+0x71e>
 10009be:	2320                	fld	fs0,64(a4)
 10009c0:	20232323          	sw	sp,518(t1)
 10009c4:	2020                	fld	fs0,64(s0)
 10009c6:	2020                	fld	fs0,64(s0)
 10009c8:	2020                	fld	fs0,64(s0)
 10009ca:	2020                	fld	fs0,64(s0)
 10009cc:	0000                	unimp
 10009ce:	0000                	unimp
 10009d0:	2e20                	fld	fs0,88(a2)
 10009d2:	2e2e                	fld	ft8,200(sp)
 10009d4:	2e2e                	fld	ft8,200(sp)
 10009d6:	2e2e                	fld	ft8,200(sp)
 10009d8:	232e                	fld	ft6,200(sp)
 10009da:	20232323          	sw	sp,518(t1)
 10009de:	2d20                	fld	fs0,88(a0)
 10009e0:	23232323          	sw	s2,550(t1)
 10009e4:	23232323          	sw	s2,550(t1)
 10009e8:	23232323          	sw	s2,550(t1)
 10009ec:	3d2a                	fld	fs10,168(sp)
 10009ee:	2e3d                	jal	1000d2c <_etext+0xa64>
 10009f0:	2020                	fld	fs0,64(s0)
 10009f2:	2020                	fld	fs0,64(s0)
 10009f4:	2020                	fld	fs0,64(s0)
 10009f6:	2020                	fld	fs0,64(s0)
 10009f8:	2020                	fld	fs0,64(s0)
 10009fa:	2020                	fld	fs0,64(s0)
 10009fc:	2020                	fld	fs0,64(s0)
 10009fe:	2020                	fld	fs0,64(s0)
 1000a00:	2020                	fld	fs0,64(s0)
 1000a02:	2020                	fld	fs0,64(s0)
 1000a04:	2020                	fld	fs0,64(s0)
 1000a06:	2020                	fld	fs0,64(s0)
 1000a08:	2020                	fld	fs0,64(s0)
 1000a0a:	2020                	fld	fs0,64(s0)
 1000a0c:	2020                	fld	fs0,64(s0)
 1000a0e:	2020                	fld	fs0,64(s0)
 1000a10:	3d2e                	fld	fs10,232(sp)
 1000a12:	2a3d                	jal	1000b50 <_etext+0x888>
 1000a14:	23232323          	sw	s2,550(t1)
 1000a18:	23232323          	sw	s2,550(t1)
 1000a1c:	23232323          	sw	s2,550(t1)
 1000a20:	202d                	jal	1000a4a <_etext+0x782>
 1000a22:	2320                	fld	fs0,64(a4)
 1000a24:	3a232323          	sw	sp,934(t1)
 1000a28:	2e2e                	fld	ft8,200(sp)
 1000a2a:	2e2e                	fld	ft8,200(sp)
 1000a2c:	2e2e                	fld	ft8,200(sp)
 1000a2e:	202e                	fld	ft0,200(sp)
 1000a30:	0000                	unimp
 1000a32:	0000                	unimp
 1000a34:	232d                	jal	1000f5e <_etext+0xc96>
 1000a36:	23232323          	sw	s2,550(t1)
 1000a3a:	23232323          	sw	s2,550(t1)
 1000a3e:	20232323          	sw	sp,518(t1)
 1000a42:	2d20                	fld	fs0,88(a0)
 1000a44:	23232323          	sw	s2,550(t1)
 1000a48:	23232323          	sw	s2,550(t1)
 1000a4c:	2d2d                	jal	1001086 <_etext+0xdbe>
 1000a4e:	2020                	fld	fs0,64(s0)
 1000a50:	2020                	fld	fs0,64(s0)
 1000a52:	2020                	fld	fs0,64(s0)
 1000a54:	2020                	fld	fs0,64(s0)
 1000a56:	2020                	fld	fs0,64(s0)
 1000a58:	2020                	fld	fs0,64(s0)
 1000a5a:	2020                	fld	fs0,64(s0)
 1000a5c:	2020                	fld	fs0,64(s0)
 1000a5e:	2020                	fld	fs0,64(s0)
 1000a60:	2020                	fld	fs0,64(s0)
 1000a62:	2020                	fld	fs0,64(s0)
 1000a64:	2020                	fld	fs0,64(s0)
 1000a66:	2020                	fld	fs0,64(s0)
 1000a68:	2020                	fld	fs0,64(s0)
 1000a6a:	2020                	fld	fs0,64(s0)
 1000a6c:	2020                	fld	fs0,64(s0)
 1000a6e:	2020                	fld	fs0,64(s0)
 1000a70:	2020                	fld	fs0,64(s0)
 1000a72:	2020                	fld	fs0,64(s0)
 1000a74:	2020                	fld	fs0,64(s0)
 1000a76:	2020                	fld	fs0,64(s0)
 1000a78:	2020                	fld	fs0,64(s0)
 1000a7a:	2d2d                	jal	10010b4 <_etext+0xdec>
 1000a7c:	232a                	fld	ft6,136(sp)
 1000a7e:	23232323          	sw	s2,550(t1)
 1000a82:	202d2323          	sw	sp,518(s10)
 1000a86:	2320                	fld	fs0,64(a4)
 1000a88:	23232323          	sw	s2,550(t1)
 1000a8c:	23232323          	sw	s2,550(t1)
 1000a90:	3d232323          	sw	s2,966(t1)
 1000a94:	0000                	unimp
 1000a96:	0000                	unimp
 1000a98:	2020                	fld	fs0,64(s0)
 1000a9a:	2020                	fld	fs0,64(s0)
 1000a9c:	2020                	fld	fs0,64(s0)
 1000a9e:	2020                	fld	fs0,64(s0)
 1000aa0:	2320                	fld	fs0,64(a4)
 1000aa2:	20232323          	sw	sp,518(t1)
 1000aa6:	2d20                	fld	fs0,88(a0)
 1000aa8:	23232323          	sw	s2,550(t1)
 1000aac:	23232323          	sw	s2,550(t1)
 1000ab0:	2b2b2a23          	sw	s2,692(s6)
 1000ab4:	202e                	fld	ft0,200(sp)
 1000ab6:	2020                	fld	fs0,64(s0)
 1000ab8:	2020                	fld	fs0,64(s0)
 1000aba:	2020                	fld	fs0,64(s0)
 1000abc:	2b3d                	jal	1000ffa <_etext+0xd32>
 1000abe:	2d3d2b2b          	p.sw	s3,726(s10!)
 1000ac2:	3a3a                	fld	fs4,424(sp)
 1000ac4:	3a3a                	fld	fs4,424(sp)
 1000ac6:	3a3a                	fld	fs4,424(sp)
 1000ac8:	3a3a                	fld	fs4,424(sp)
 1000aca:	3a3a                	fld	fs4,424(sp)
 1000acc:	3a3a                	fld	fs4,424(sp)
 1000ace:	2d3a                	fld	fs10,392(sp)
 1000ad0:	2b2b2b2b          	p.sw	s2,694(s6!)
 1000ad4:	203a                	fld	ft0,392(sp)
 1000ad6:	2020                	fld	fs0,64(s0)
 1000ad8:	2020                	fld	fs0,64(s0)
 1000ada:	2e20                	fld	fs0,88(a2)
 1000adc:	232a2b2b          	p.sw	s2,566(s4!)
 1000ae0:	23232323          	sw	s2,550(t1)
 1000ae4:	23232323          	sw	s2,550(t1)
 1000ae8:	202d                	jal	1000b12 <_etext+0x84a>
 1000aea:	2320                	fld	fs0,64(a4)
 1000aec:	20232323          	sw	sp,518(t1)
 1000af0:	2020                	fld	fs0,64(s0)
 1000af2:	2020                	fld	fs0,64(s0)
 1000af4:	2020                	fld	fs0,64(s0)
 1000af6:	2020                	fld	fs0,64(s0)
 1000af8:	0000                	unimp
 1000afa:	0000                	unimp
 1000afc:	3a20                	fld	fs0,112(a2)
 1000afe:	3a3a                	fld	fs4,424(sp)
 1000b00:	3a3a                	fld	fs4,424(sp)
 1000b02:	3a3a                	fld	fs4,424(sp)
 1000b04:	233a                	fld	ft6,392(sp)
 1000b06:	20232323          	sw	sp,518(t1)
 1000b0a:	2d20                	fld	fs0,88(a0)
 1000b0c:	23232323          	sw	s2,550(t1)
 1000b10:	23232323          	sw	s2,550(t1)
 1000b14:	23232323          	sw	s2,550(t1)
 1000b18:	203a                	fld	ft0,392(sp)
 1000b1a:	3a2a2a23          	sw	sp,948(s4)
 1000b1e:	20202023          	sw	sp,512(zero) # 200 <__DYNAMIC+0x200>
 1000b22:	2020                	fld	fs0,64(s0)
 1000b24:	2020                	fld	fs0,64(s0)
 1000b26:	2020                	fld	fs0,64(s0)
 1000b28:	2020                	fld	fs0,64(s0)
 1000b2a:	2020                	fld	fs0,64(s0)
 1000b2c:	2020                	fld	fs0,64(s0)
 1000b2e:	2020                	fld	fs0,64(s0)
 1000b30:	2020                	fld	fs0,64(s0)
 1000b32:	2020                	fld	fs0,64(s0)
 1000b34:	2020                	fld	fs0,64(s0)
 1000b36:	2020                	fld	fs0,64(s0)
 1000b38:	2320                	fld	fs0,64(a4)
 1000b3a:	232a2a2b          	p.sw	s2,564(s4!)
 1000b3e:	23232323          	sw	s2,550(t1)
 1000b42:	23232323          	sw	s2,550(t1)
 1000b46:	23232323          	sw	s2,550(t1)
 1000b4a:	202d2323          	sw	sp,518(s10)
 1000b4e:	2320                	fld	fs0,64(a4)
 1000b50:	2d232323          	sw	s2,710(t1)
 1000b54:	3a3a                	fld	fs4,424(sp)
 1000b56:	3a3a                	fld	fs4,424(sp)
 1000b58:	3a3a                	fld	fs4,424(sp)
 1000b5a:	203a                	fld	ft0,392(sp)
 1000b5c:	0000                	unimp
 1000b5e:	0000                	unimp
 1000b60:	2a3a                	fld	fs4,392(sp)
 1000b62:	2a2a                	fld	fs4,136(sp)
 1000b64:	2a2a                	fld	fs4,136(sp)
 1000b66:	2a2a                	fld	fs4,136(sp)
 1000b68:	232a                	fld	ft6,136(sp)
 1000b6a:	20232323          	sw	sp,518(t1)
 1000b6e:	2d20                	fld	fs0,88(a0)
 1000b70:	23232323          	sw	s2,550(t1)
 1000b74:	23232323          	sw	s2,550(t1)
 1000b78:	23232323          	sw	s2,550(t1)
 1000b7c:	202e                	fld	ft0,200(sp)
 1000b7e:	23232323          	sw	s2,550(t1)
 1000b82:	20202023          	sw	sp,512(zero) # 200 <__DYNAMIC+0x200>
 1000b86:	2020                	fld	fs0,64(s0)
 1000b88:	2020                	fld	fs0,64(s0)
 1000b8a:	2020                	fld	fs0,64(s0)
 1000b8c:	2020                	fld	fs0,64(s0)
 1000b8e:	2020                	fld	fs0,64(s0)
 1000b90:	2020                	fld	fs0,64(s0)
 1000b92:	2020                	fld	fs0,64(s0)
 1000b94:	2020                	fld	fs0,64(s0)
 1000b96:	2020                	fld	fs0,64(s0)
 1000b98:	2020                	fld	fs0,64(s0)
 1000b9a:	2020                	fld	fs0,64(s0)
 1000b9c:	2020                	fld	fs0,64(s0)
 1000b9e:	23232323          	sw	s2,550(t1)
 1000ba2:	23232323          	sw	s2,550(t1)
 1000ba6:	23232323          	sw	s2,550(t1)
 1000baa:	23232323          	sw	s2,550(t1)
 1000bae:	202d2323          	sw	sp,518(s10)
 1000bb2:	2320                	fld	fs0,64(a4)
 1000bb4:	2a232323          	sw	sp,678(t1)
 1000bb8:	2a2a                	fld	fs4,136(sp)
 1000bba:	2a2a                	fld	fs4,136(sp)
 1000bbc:	2a2a                	fld	fs4,136(sp)
 1000bbe:	2d2a                	fld	fs10,136(sp)
 1000bc0:	0000                	unimp
 1000bc2:	0000                	unimp
 1000bc4:	2020                	fld	fs0,64(s0)
 1000bc6:	2020                	fld	fs0,64(s0)
 1000bc8:	2020                	fld	fs0,64(s0)
 1000bca:	2020                	fld	fs0,64(s0)
 1000bcc:	2320                	fld	fs0,64(a4)
 1000bce:	20232323          	sw	sp,518(t1)
 1000bd2:	2d20                	fld	fs0,88(a0)
 1000bd4:	23232323          	sw	s2,550(t1)
 1000bd8:	23232323          	sw	s2,550(t1)
 1000bdc:	23232323          	sw	s2,550(t1)
 1000be0:	2e2e                	fld	ft8,200(sp)
 1000be2:	23232323          	sw	s2,550(t1)
 1000be6:	20202023          	sw	sp,512(zero) # 200 <__DYNAMIC+0x200>
 1000bea:	2020                	fld	fs0,64(s0)
 1000bec:	2020                	fld	fs0,64(s0)
 1000bee:	2020                	fld	fs0,64(s0)
 1000bf0:	2020                	fld	fs0,64(s0)
 1000bf2:	2e20                	fld	fs0,88(a2)
 1000bf4:	2e2e                	fld	ft8,200(sp)
 1000bf6:	2020                	fld	fs0,64(s0)
 1000bf8:	2020                	fld	fs0,64(s0)
 1000bfa:	2020                	fld	fs0,64(s0)
 1000bfc:	2020                	fld	fs0,64(s0)
 1000bfe:	2020                	fld	fs0,64(s0)
 1000c00:	2020                	fld	fs0,64(s0)
 1000c02:	23232323          	sw	s2,550(t1)
 1000c06:	23232323          	sw	s2,550(t1)
 1000c0a:	23232323          	sw	s2,550(t1)
 1000c0e:	23232323          	sw	s2,550(t1)
 1000c12:	202d2323          	sw	sp,518(s10)
 1000c16:	2320                	fld	fs0,64(a4)
 1000c18:	20232323          	sw	sp,518(t1)
 1000c1c:	2020                	fld	fs0,64(s0)
 1000c1e:	2020                	fld	fs0,64(s0)
 1000c20:	2020                	fld	fs0,64(s0)
 1000c22:	2020                	fld	fs0,64(s0)
 1000c24:	0000                	unimp
 1000c26:	0000                	unimp
 1000c28:	3d3a                	fld	fs10,424(sp)
 1000c2a:	3d3d                	jal	1000a68 <_etext+0x7a0>
 1000c2c:	3d3d                	jal	1000a6a <_etext+0x7a2>
 1000c2e:	3d3d                	jal	1000a6c <_etext+0x7a4>
 1000c30:	233d                	jal	100115e <_etext+0xe96>
 1000c32:	20232323          	sw	sp,518(t1)
 1000c36:	2d20                	fld	fs0,88(a0)
 1000c38:	23232323          	sw	s2,550(t1)
 1000c3c:	23232323          	sw	s2,550(t1)
 1000c40:	23232323          	sw	s2,550(t1)
 1000c44:	202e                	fld	ft0,200(sp)
 1000c46:	232a                	fld	ft6,136(sp)
 1000c48:	20232323          	sw	sp,518(t1)
 1000c4c:	2020                	fld	fs0,64(s0)
 1000c4e:	2d20                	fld	fs0,88(a0)
 1000c50:	2b2d                	jal	100118a <_etext+0xec2>
 1000c52:	23232323          	sw	s2,550(t1)
 1000c56:	23232323          	sw	s2,550(t1)
 1000c5a:	23232323          	sw	s2,550(t1)
 1000c5e:	2d2a                	fld	fs10,136(sp)
 1000c60:	2e2d                	jal	1000f9a <_etext+0xcd2>
 1000c62:	2020                	fld	fs0,64(s0)
 1000c64:	2020                	fld	fs0,64(s0)
 1000c66:	23232323          	sw	s2,550(t1)
 1000c6a:	23232323          	sw	s2,550(t1)
 1000c6e:	23232323          	sw	s2,550(t1)
 1000c72:	23232323          	sw	s2,550(t1)
 1000c76:	202d2323          	sw	sp,518(s10)
 1000c7a:	2320                	fld	fs0,64(a4)
 1000c7c:	3d232323          	sw	s2,966(t1)
 1000c80:	3d3d                	jal	1000abe <_etext+0x7f6>
 1000c82:	3d3d                	jal	1000ac0 <_etext+0x7f8>
 1000c84:	3d3d                	jal	1000ac2 <_etext+0x7fa>
 1000c86:	2d3d                	jal	10012c4 <_etext+0xffc>
 1000c88:	0000                	unimp
 1000c8a:	0000                	unimp
 1000c8c:	3a2e                	fld	fs4,232(sp)
 1000c8e:	3a3a                	fld	fs4,424(sp)
 1000c90:	3a3a                	fld	fs4,424(sp)
 1000c92:	3a3a                	fld	fs4,424(sp)
 1000c94:	232d                	jal	10011be <_etext+0xef6>
 1000c96:	20232323          	sw	sp,518(t1)
 1000c9a:	2d20                	fld	fs0,88(a0)
 1000c9c:	23232323          	sw	s2,550(t1)
 1000ca0:	23232323          	sw	s2,550(t1)
 1000ca4:	3d232323          	sw	s2,966(t1)
 1000ca8:	2020                	fld	fs0,64(s0)
 1000caa:	232e                	fld	ft6,200(sp)
 1000cac:	2d232323          	sw	s2,710(t1)
 1000cb0:	2323232b          	p.sw	s2,550(t1!)
 1000cb4:	23232323          	sw	s2,550(t1)
 1000cb8:	2d232323          	sw	s2,710(t1)
 1000cbc:	2a3a                	fld	fs4,392(sp)
 1000cbe:	23232323          	sw	s2,550(t1)
 1000cc2:	23232323          	sw	s2,550(t1)
 1000cc6:	202b2a23          	sw	sp,532(s6)
 1000cca:	23232323          	sw	s2,550(t1)
 1000cce:	23232323          	sw	s2,550(t1)
 1000cd2:	23232323          	sw	s2,550(t1)
 1000cd6:	23232323          	sw	s2,550(t1)
 1000cda:	202d2323          	sw	sp,518(s10)
 1000cde:	2320                	fld	fs0,64(a4)
 1000ce0:	2d232323          	sw	s2,710(t1)
 1000ce4:	3a3a                	fld	fs4,424(sp)
 1000ce6:	3a3a                	fld	fs4,424(sp)
 1000ce8:	3a3a                	fld	fs4,424(sp)
 1000cea:	2e3a                	fld	ft8,392(sp)
 1000cec:	0000                	unimp
 1000cee:	0000                	unimp
 1000cf0:	2020                	fld	fs0,64(s0)
 1000cf2:	2020                	fld	fs0,64(s0)
 1000cf4:	2020                	fld	fs0,64(s0)
 1000cf6:	2020                	fld	fs0,64(s0)
 1000cf8:	2320                	fld	fs0,64(a4)
 1000cfa:	20232323          	sw	sp,518(t1)
 1000cfe:	2d20                	fld	fs0,88(a0)
 1000d00:	23232323          	sw	s2,550(t1)
 1000d04:	23232323          	sw	s2,550(t1)
 1000d08:	23232323          	sw	s2,550(t1)
 1000d0c:	2020                	fld	fs0,64(s0)
 1000d0e:	2320                	fld	fs0,64(a4)
 1000d10:	23232323          	sw	s2,550(t1)
 1000d14:	23232323          	sw	s2,550(t1)
 1000d18:	3a3d2323          	sw	gp,934(s10)
 1000d1c:	23232323          	sw	s2,550(t1)
 1000d20:	232a                	fld	ft6,136(sp)
 1000d22:	3a3d2323          	sw	gp,934(s10)
 1000d26:	23232323          	sw	s2,550(t1)
 1000d2a:	23232323          	sw	s2,550(t1)
 1000d2e:	23232323          	sw	s2,550(t1)
 1000d32:	23232323          	sw	s2,550(t1)
 1000d36:	23232323          	sw	s2,550(t1)
 1000d3a:	23232323          	sw	s2,550(t1)
 1000d3e:	202d2323          	sw	sp,518(s10)
 1000d42:	2320                	fld	fs0,64(a4)
 1000d44:	20232323          	sw	sp,518(t1)
 1000d48:	2020                	fld	fs0,64(s0)
 1000d4a:	2020                	fld	fs0,64(s0)
 1000d4c:	2020                	fld	fs0,64(s0)
 1000d4e:	2020                	fld	fs0,64(s0)
 1000d50:	0000                	unimp
 1000d52:	0000                	unimp
 1000d54:	233d                	jal	1001282 <_etext+0xfba>
 1000d56:	23232323          	sw	s2,550(t1)
 1000d5a:	23232323          	sw	s2,550(t1)
 1000d5e:	20232323          	sw	sp,518(t1)
 1000d62:	2d20                	fld	fs0,88(a0)
 1000d64:	23232323          	sw	s2,550(t1)
 1000d68:	23232323          	sw	s2,550(t1)
 1000d6c:	3a232323          	sw	sp,934(t1)
 1000d70:	2020                	fld	fs0,64(s0)
 1000d72:	2d20                	fld	fs0,88(a0)
 1000d74:	23232323          	sw	s2,550(t1)
 1000d78:	2d232323          	sw	s2,710(t1)
 1000d7c:	23232323          	sw	s2,550(t1)
 1000d80:	23232323          	sw	s2,550(t1)
 1000d84:	23232323          	sw	s2,550(t1)
 1000d88:	23232323          	sw	s2,550(t1)
 1000d8c:	23232323          	sw	s2,550(t1)
 1000d90:	23232323          	sw	s2,550(t1)
 1000d94:	23232323          	sw	s2,550(t1)
 1000d98:	23232323          	sw	s2,550(t1)
 1000d9c:	23232323          	sw	s2,550(t1)
 1000da0:	23232323          	sw	s2,550(t1)
 1000da4:	202d                	jal	1000dce <_etext+0xb06>
 1000da6:	2320                	fld	fs0,64(a4)
 1000da8:	23232323          	sw	s2,550(t1)
 1000dac:	23232323          	sw	s2,550(t1)
 1000db0:	2a232323          	sw	sp,678(t1)
 1000db4:	0000                	unimp
 1000db6:	0000                	unimp
 1000db8:	2020                	fld	fs0,64(s0)
 1000dba:	2020                	fld	fs0,64(s0)
 1000dbc:	2020                	fld	fs0,64(s0)
 1000dbe:	2020                	fld	fs0,64(s0)
 1000dc0:	2320                	fld	fs0,64(a4)
 1000dc2:	20232323          	sw	sp,518(t1)
 1000dc6:	2d20                	fld	fs0,88(a0)
 1000dc8:	23232323          	sw	s2,550(t1)
 1000dcc:	2a232323          	sw	sp,678(t1)
 1000dd0:	20202e2b          	p.sw	sp,540(zero!) # 21c <__DYNAMIC+0x21c>
 1000dd4:	2020                	fld	fs0,64(s0)
 1000dd6:	2d20                	fld	fs0,88(a0)
 1000dd8:	23232323          	sw	s2,550(t1)
 1000ddc:	2d232323          	sw	s2,710(t1)
 1000de0:	23232323          	sw	s2,550(t1)
 1000de4:	23232323          	sw	s2,550(t1)
 1000de8:	23232323          	sw	s2,550(t1)
 1000dec:	23232323          	sw	s2,550(t1)
 1000df0:	3d2d                	jal	1000c2a <_etext+0x962>
 1000df2:	23232323          	sw	s2,550(t1)
 1000df6:	23232323          	sw	s2,550(t1)
 1000dfa:	23232323          	sw	s2,550(t1)
 1000dfe:	23232323          	sw	s2,550(t1)
 1000e02:	23232323          	sw	s2,550(t1)
 1000e06:	202d2323          	sw	sp,518(s10)
 1000e0a:	2320                	fld	fs0,64(a4)
 1000e0c:	20232323          	sw	sp,518(t1)
 1000e10:	2020                	fld	fs0,64(s0)
 1000e12:	2020                	fld	fs0,64(s0)
 1000e14:	2020                	fld	fs0,64(s0)
 1000e16:	2020                	fld	fs0,64(s0)
 1000e18:	0000                	unimp
 1000e1a:	0000                	unimp
 1000e1c:	2020                	fld	fs0,64(s0)
 1000e1e:	2020                	fld	fs0,64(s0)
 1000e20:	2020                	fld	fs0,64(s0)
 1000e22:	2020                	fld	fs0,64(s0)
 1000e24:	2320                	fld	fs0,64(a4)
 1000e26:	20232323          	sw	sp,518(t1)
 1000e2a:	2d20                	fld	fs0,88(a0)
 1000e2c:	23232323          	sw	s2,550(t1)
 1000e30:	3d232323          	sw	s2,966(t1)
 1000e34:	203a                	fld	ft0,392(sp)
 1000e36:	2020                	fld	fs0,64(s0)
 1000e38:	2020                	fld	fs0,64(s0)
 1000e3a:	2320                	fld	fs0,64(a4)
 1000e3c:	23232323          	sw	s2,550(t1)
 1000e40:	23232323          	sw	s2,550(t1)
 1000e44:	23232323          	sw	s2,550(t1)
 1000e48:	23232323          	sw	s2,550(t1)
 1000e4c:	23232323          	sw	s2,550(t1)
 1000e50:	23232323          	sw	s2,550(t1)
 1000e54:	23232323          	sw	s2,550(t1)
 1000e58:	23232323          	sw	s2,550(t1)
 1000e5c:	23232323          	sw	s2,550(t1)
 1000e60:	23232323          	sw	s2,550(t1)
 1000e64:	23232323          	sw	s2,550(t1)
 1000e68:	23232323          	sw	s2,550(t1)
 1000e6c:	202d                	jal	1000e96 <_etext+0xbce>
 1000e6e:	2320                	fld	fs0,64(a4)
 1000e70:	2e232323          	sw	sp,742(t1)
 1000e74:	2020                	fld	fs0,64(s0)
 1000e76:	2020                	fld	fs0,64(s0)
 1000e78:	2020                	fld	fs0,64(s0)
 1000e7a:	2020                	fld	fs0,64(s0)
 1000e7c:	0000                	unimp
 1000e7e:	0000                	unimp
 1000e80:	233d                	jal	10013ae <_etext+0x10e6>
 1000e82:	23232323          	sw	s2,550(t1)
 1000e86:	23232323          	sw	s2,550(t1)
 1000e8a:	20232323          	sw	sp,518(t1)
 1000e8e:	2d20                	fld	fs0,88(a0)
 1000e90:	23232323          	sw	s2,550(t1)
 1000e94:	23232323          	sw	s2,550(t1)
 1000e98:	3d2a2323          	sw	s2,966(s4)
 1000e9c:	3d3d                	jal	1000cda <_etext+0xa12>
 1000e9e:	232a                	fld	ft6,136(sp)
 1000ea0:	23232323          	sw	s2,550(t1)
 1000ea4:	232d3d23          	0x232d3d23
 1000ea8:	23232323          	sw	s2,550(t1)
 1000eac:	23232323          	sw	s2,550(t1)
 1000eb0:	23232323          	sw	s2,550(t1)
 1000eb4:	23232323          	sw	s2,550(t1)
 1000eb8:	232d2d23          	sw	s2,570(s10)
 1000ebc:	23232323          	sw	s2,550(t1)
 1000ec0:	23232323          	sw	s2,550(t1)
 1000ec4:	23232323          	sw	s2,550(t1)
 1000ec8:	23232323          	sw	s2,550(t1)
 1000ecc:	23232323          	sw	s2,550(t1)
 1000ed0:	202d                	jal	1000efa <_etext+0xc32>
 1000ed2:	2320                	fld	fs0,64(a4)
 1000ed4:	23232323          	sw	s2,550(t1)
 1000ed8:	23232323          	sw	s2,550(t1)
 1000edc:	2b232323          	sw	s2,678(t1)
 1000ee0:	0000                	unimp
 1000ee2:	0000                	unimp
 1000ee4:	2020                	fld	fs0,64(s0)
 1000ee6:	2020                	fld	fs0,64(s0)
 1000ee8:	2020                	fld	fs0,64(s0)
 1000eea:	2020                	fld	fs0,64(s0)
 1000eec:	2320                	fld	fs0,64(a4)
 1000eee:	20232323          	sw	sp,518(t1)
 1000ef2:	2d20                	fld	fs0,88(a0)
 1000ef4:	23232323          	sw	s2,550(t1)
 1000ef8:	23232323          	sw	s2,550(t1)
 1000efc:	23232323          	sw	s2,550(t1)
 1000f00:	23232323          	sw	s2,550(t1)
 1000f04:	23232323          	sw	s2,550(t1)
 1000f08:	232a2a23          	sw	s2,564(s4)
 1000f0c:	23232323          	sw	s2,550(t1)
 1000f10:	23232323          	sw	s2,550(t1)
 1000f14:	23232323          	sw	s2,550(t1)
 1000f18:	23232323          	sw	s2,550(t1)
 1000f1c:	232a2a23          	sw	s2,564(s4)
 1000f20:	23232323          	sw	s2,550(t1)
 1000f24:	23232323          	sw	s2,550(t1)
 1000f28:	23232323          	sw	s2,550(t1)
 1000f2c:	23232323          	sw	s2,550(t1)
 1000f30:	23232323          	sw	s2,550(t1)
 1000f34:	202d                	jal	1000f5e <_etext+0xc96>
 1000f36:	2320                	fld	fs0,64(a4)
 1000f38:	20232323          	sw	sp,518(t1)
 1000f3c:	2020                	fld	fs0,64(s0)
 1000f3e:	2020                	fld	fs0,64(s0)
 1000f40:	2020                	fld	fs0,64(s0)
 1000f42:	2020                	fld	fs0,64(s0)
 1000f44:	0000                	unimp
 1000f46:	0000                	unimp
 1000f48:	2020                	fld	fs0,64(s0)
 1000f4a:	2020                	fld	fs0,64(s0)
 1000f4c:	2020                	fld	fs0,64(s0)
 1000f4e:	2020                	fld	fs0,64(s0)
 1000f50:	2320                	fld	fs0,64(a4)
 1000f52:	20232323          	sw	sp,518(t1)
 1000f56:	2d20                	fld	fs0,88(a0)
 1000f58:	23232323          	sw	s2,550(t1)
 1000f5c:	23232323          	sw	s2,550(t1)
 1000f60:	23232323          	sw	s2,550(t1)
 1000f64:	23232323          	sw	s2,550(t1)
 1000f68:	23232323          	sw	s2,550(t1)
 1000f6c:	2d232323          	sw	s2,710(t1)
 1000f70:	23232323          	sw	s2,550(t1)
 1000f74:	23232323          	sw	s2,550(t1)
 1000f78:	23232323          	sw	s2,550(t1)
 1000f7c:	23232323          	sw	s2,550(t1)
 1000f80:	23232323          	sw	s2,550(t1)
 1000f84:	23232323          	sw	s2,550(t1)
 1000f88:	23232323          	sw	s2,550(t1)
 1000f8c:	23232323          	sw	s2,550(t1)
 1000f90:	23232323          	sw	s2,550(t1)
 1000f94:	23232323          	sw	s2,550(t1)
 1000f98:	202d                	jal	1000fc2 <_etext+0xcfa>
 1000f9a:	2320                	fld	fs0,64(a4)
 1000f9c:	20232323          	sw	sp,518(t1)
 1000fa0:	2020                	fld	fs0,64(s0)
 1000fa2:	2020                	fld	fs0,64(s0)
 1000fa4:	2020                	fld	fs0,64(s0)
 1000fa6:	2020                	fld	fs0,64(s0)
 1000fa8:	0000                	unimp
 1000faa:	0000                	unimp
 1000fac:	2a2d                	jal	10010e6 <_etext+0xe1e>
 1000fae:	2a2a                	fld	fs4,136(sp)
 1000fb0:	2a2a                	fld	fs4,136(sp)
 1000fb2:	2a2a                	fld	fs4,136(sp)
 1000fb4:	232a                	fld	ft6,136(sp)
 1000fb6:	20232323          	sw	sp,518(t1)
 1000fba:	2d20                	fld	fs0,88(a0)
 1000fbc:	23232323          	sw	s2,550(t1)
 1000fc0:	23232323          	sw	s2,550(t1)
 1000fc4:	23232323          	sw	s2,550(t1)
 1000fc8:	23232323          	sw	s2,550(t1)
 1000fcc:	23232323          	sw	s2,550(t1)
 1000fd0:	3a232323          	sw	sp,934(t1)
 1000fd4:	23232323          	sw	s2,550(t1)
 1000fd8:	23232323          	sw	s2,550(t1)
 1000fdc:	23232323          	sw	s2,550(t1)
 1000fe0:	23232323          	sw	s2,550(t1)
 1000fe4:	3d3a                	fld	fs10,424(sp)
 1000fe6:	23232323          	sw	s2,550(t1)
 1000fea:	23232323          	sw	s2,550(t1)
 1000fee:	23232323          	sw	s2,550(t1)
 1000ff2:	23232323          	sw	s2,550(t1)
 1000ff6:	23232323          	sw	s2,550(t1)
 1000ffa:	202d2323          	sw	sp,518(s10)
 1000ffe:	2320                	fld	fs0,64(a4)
 1001000:	2a232323          	sw	sp,678(t1)
 1001004:	2a2a                	fld	fs4,136(sp)
 1001006:	2a2a                	fld	fs4,136(sp)
 1001008:	2a2a                	fld	fs4,136(sp)
 100100a:	3d2a                	fld	fs10,168(sp)
 100100c:	0000                	unimp
 100100e:	0000                	unimp
 1001010:	2020                	fld	fs0,64(s0)
 1001012:	2020                	fld	fs0,64(s0)
 1001014:	2020                	fld	fs0,64(s0)
 1001016:	2020                	fld	fs0,64(s0)
 1001018:	2320                	fld	fs0,64(a4)
 100101a:	20232323          	sw	sp,518(t1)
 100101e:	2d20                	fld	fs0,88(a0)
 1001020:	23232323          	sw	s2,550(t1)
 1001024:	23232323          	sw	s2,550(t1)
 1001028:	23232323          	sw	s2,550(t1)
 100102c:	23232323          	sw	s2,550(t1)
 1001030:	23232323          	sw	s2,550(t1)
 1001034:	23232323          	sw	s2,550(t1)
 1001038:	2b2b2323          	sw	s2,678(s6)
 100103c:	232a                	fld	ft6,136(sp)
 100103e:	23232323          	sw	s2,550(t1)
 1001042:	2b2b2323          	sw	s2,678(s6)
 1001046:	232a                	fld	ft6,136(sp)
 1001048:	23232323          	sw	s2,550(t1)
 100104c:	23232323          	sw	s2,550(t1)
 1001050:	23232323          	sw	s2,550(t1)
 1001054:	23232323          	sw	s2,550(t1)
 1001058:	23232323          	sw	s2,550(t1)
 100105c:	23232323          	sw	s2,550(t1)
 1001060:	202d                	jal	100108a <_etext+0xdc2>
 1001062:	2320                	fld	fs0,64(a4)
 1001064:	20232323          	sw	sp,518(t1)
 1001068:	2020                	fld	fs0,64(s0)
 100106a:	2020                	fld	fs0,64(s0)
 100106c:	2020                	fld	fs0,64(s0)
 100106e:	2020                	fld	fs0,64(s0)
 1001070:	0000                	unimp
 1001072:	0000                	unimp
 1001074:	3d3a                	fld	fs10,424(sp)
 1001076:	3d3d                	jal	1000eb4 <_etext+0xbec>
 1001078:	3d3d                	jal	1000eb6 <_etext+0xbee>
 100107a:	3d3d                	jal	1000eb8 <_etext+0xbf0>
 100107c:	233d                	jal	10015aa <_etext+0x12e2>
 100107e:	20232323          	sw	sp,518(t1)
 1001082:	2d20                	fld	fs0,88(a0)
 1001084:	23232323          	sw	s2,550(t1)
 1001088:	23232323          	sw	s2,550(t1)
 100108c:	23232323          	sw	s2,550(t1)
 1001090:	23232323          	sw	s2,550(t1)
 1001094:	23232323          	sw	s2,550(t1)
 1001098:	23232323          	sw	s2,550(t1)
 100109c:	3d2b2323          	sw	s2,966(s6)
 10010a0:	2b232323          	sw	s2,678(t1)
 10010a4:	232d                	jal	10015ce <_etext+0x1306>
 10010a6:	2b2b2323          	sw	s2,678(s6)
 10010aa:	23232323          	sw	s2,550(t1)
 10010ae:	23232323          	sw	s2,550(t1)
 10010b2:	23232323          	sw	s2,550(t1)
 10010b6:	23232323          	sw	s2,550(t1)
 10010ba:	23232323          	sw	s2,550(t1)
 10010be:	23232323          	sw	s2,550(t1)
 10010c2:	202d2323          	sw	sp,518(s10)
 10010c6:	2320                	fld	fs0,64(a4)
 10010c8:	3d232323          	sw	s2,966(t1)
 10010cc:	3d3d                	jal	1000f0a <_etext+0xc42>
 10010ce:	3d3d                	jal	1000f0c <_etext+0xc44>
 10010d0:	3d3d                	jal	1000f0e <_etext+0xc46>
 10010d2:	2d3d                	jal	1001710 <_etext+0x1448>
 10010d4:	0000                	unimp
 10010d6:	0000                	unimp
 10010d8:	3a2e                	fld	fs4,232(sp)
 10010da:	3a3a                	fld	fs4,424(sp)
 10010dc:	3a3a                	fld	fs4,424(sp)
 10010de:	3a3a                	fld	fs4,424(sp)
 10010e0:	233a                	fld	ft6,392(sp)
 10010e2:	20232323          	sw	sp,518(t1)
 10010e6:	2e20                	fld	fs0,88(a2)
 10010e8:	23232323          	sw	s2,550(t1)
 10010ec:	23232323          	sw	s2,550(t1)
 10010f0:	23232323          	sw	s2,550(t1)
 10010f4:	23232323          	sw	s2,550(t1)
 10010f8:	23232323          	sw	s2,550(t1)
 10010fc:	23232323          	sw	s2,550(t1)
 1001100:	23232323          	sw	s2,550(t1)
 1001104:	2a232323          	sw	sp,678(t1)
 1001108:	232a                	fld	ft6,136(sp)
 100110a:	23232323          	sw	s2,550(t1)
 100110e:	23232323          	sw	s2,550(t1)
 1001112:	23232323          	sw	s2,550(t1)
 1001116:	23232323          	sw	s2,550(t1)
 100111a:	23232323          	sw	s2,550(t1)
 100111e:	23232323          	sw	s2,550(t1)
 1001122:	23232323          	sw	s2,550(t1)
 1001126:	202e2323          	sw	sp,518(t3)
 100112a:	2320                	fld	fs0,64(a4)
 100112c:	3a232323          	sw	sp,934(t1)
 1001130:	3a3a                	fld	fs4,424(sp)
 1001132:	3a3a                	fld	fs4,424(sp)
 1001134:	3a3a                	fld	fs4,424(sp)
 1001136:	2e3a                	fld	ft8,392(sp)
 1001138:	0000                	unimp
 100113a:	0000                	unimp
 100113c:	2020                	fld	fs0,64(s0)
 100113e:	2020                	fld	fs0,64(s0)
 1001140:	2020                	fld	fs0,64(s0)
 1001142:	2020                	fld	fs0,64(s0)
 1001144:	2320                	fld	fs0,64(a4)
 1001146:	20232323          	sw	sp,518(t1)
 100114a:	2020                	fld	fs0,64(s0)
 100114c:	2a20                	fld	fs0,80(a2)
 100114e:	23232323          	sw	s2,550(t1)
 1001152:	23232323          	sw	s2,550(t1)
 1001156:	23232323          	sw	s2,550(t1)
 100115a:	23232323          	sw	s2,550(t1)
 100115e:	23232323          	sw	s2,550(t1)
 1001162:	23232323          	sw	s2,550(t1)
 1001166:	23232323          	sw	s2,550(t1)
 100116a:	23232323          	sw	s2,550(t1)
 100116e:	23232323          	sw	s2,550(t1)
 1001172:	23232323          	sw	s2,550(t1)
 1001176:	23232323          	sw	s2,550(t1)
 100117a:	23232323          	sw	s2,550(t1)
 100117e:	23232323          	sw	s2,550(t1)
 1001182:	23232323          	sw	s2,550(t1)
 1001186:	23232323          	sw	s2,550(t1)
 100118a:	20202023          	sw	sp,512(zero) # 200 <__DYNAMIC+0x200>
 100118e:	2320                	fld	fs0,64(a4)
 1001190:	20232323          	sw	sp,518(t1)
 1001194:	2020                	fld	fs0,64(s0)
 1001196:	2020                	fld	fs0,64(s0)
 1001198:	2020                	fld	fs0,64(s0)
 100119a:	2020                	fld	fs0,64(s0)
 100119c:	0000                	unimp
 100119e:	0000                	unimp
 10011a0:	2020                	fld	fs0,64(s0)
 10011a2:	2020                	fld	fs0,64(s0)
 10011a4:	2020                	fld	fs0,64(s0)
 10011a6:	2020                	fld	fs0,64(s0)
 10011a8:	2b20                	fld	fs0,80(a4)
 10011aa:	23232323          	sw	s2,550(t1)
 10011ae:	2020                	fld	fs0,64(s0)
 10011b0:	2020                	fld	fs0,64(s0)
 10011b2:	2020                	fld	fs0,64(s0)
 10011b4:	3a2e                	fld	fs4,232(sp)
 10011b6:	3a3a                	fld	fs4,424(sp)
 10011b8:	3a3a                	fld	fs4,424(sp)
 10011ba:	3a3a                	fld	fs4,424(sp)
 10011bc:	3a3a                	fld	fs4,424(sp)
 10011be:	3a3a                	fld	fs4,424(sp)
 10011c0:	3a3a                	fld	fs4,424(sp)
 10011c2:	3a3a                	fld	fs4,424(sp)
 10011c4:	3a3a                	fld	fs4,424(sp)
 10011c6:	3a3a                	fld	fs4,424(sp)
 10011c8:	3a3a                	fld	fs4,424(sp)
 10011ca:	3a3a                	fld	fs4,424(sp)
 10011cc:	3a3a                	fld	fs4,424(sp)
 10011ce:	3a3a                	fld	fs4,424(sp)
 10011d0:	3a3a                	fld	fs4,424(sp)
 10011d2:	3a3a                	fld	fs4,424(sp)
 10011d4:	3a3a                	fld	fs4,424(sp)
 10011d6:	3a3a                	fld	fs4,424(sp)
 10011d8:	3a3a                	fld	fs4,424(sp)
 10011da:	3a3a                	fld	fs4,424(sp)
 10011dc:	3a3a                	fld	fs4,424(sp)
 10011de:	3a3a                	fld	fs4,424(sp)
 10011e0:	3a3a                	fld	fs4,424(sp)
 10011e2:	3a3a                	fld	fs4,424(sp)
 10011e4:	3a3a                	fld	fs4,424(sp)
 10011e6:	3a3a                	fld	fs4,424(sp)
 10011e8:	3a3a                	fld	fs4,424(sp)
 10011ea:	2e3a                	fld	ft8,392(sp)
 10011ec:	2020                	fld	fs0,64(s0)
 10011ee:	2020                	fld	fs0,64(s0)
 10011f0:	2020                	fld	fs0,64(s0)
 10011f2:	23232323          	sw	s2,550(t1)
 10011f6:	202a                	fld	ft0,136(sp)
 10011f8:	2020                	fld	fs0,64(s0)
 10011fa:	2020                	fld	fs0,64(s0)
 10011fc:	2020                	fld	fs0,64(s0)
 10011fe:	2020                	fld	fs0,64(s0)
 1001200:	0000                	unimp
 1001202:	0000                	unimp
 1001204:	2020                	fld	fs0,64(s0)
 1001206:	2020                	fld	fs0,64(s0)
 1001208:	2020                	fld	fs0,64(s0)
 100120a:	2020                	fld	fs0,64(s0)
 100120c:	2020                	fld	fs0,64(s0)
 100120e:	2323232b          	p.sw	s2,550(t1!)
 1001212:	3a3a2a23          	sw	gp,948(s4)
 1001216:	3a3a                	fld	fs4,424(sp)
 1001218:	3a3a                	fld	fs4,424(sp)
 100121a:	3a3a                	fld	fs4,424(sp)
 100121c:	3a3a                	fld	fs4,424(sp)
 100121e:	3a3a                	fld	fs4,424(sp)
 1001220:	3a3a                	fld	fs4,424(sp)
 1001222:	3a3a                	fld	fs4,424(sp)
 1001224:	3a3a                	fld	fs4,424(sp)
 1001226:	3a3a                	fld	fs4,424(sp)
 1001228:	3a3a                	fld	fs4,424(sp)
 100122a:	3a3a                	fld	fs4,424(sp)
 100122c:	3a3a                	fld	fs4,424(sp)
 100122e:	3a3a                	fld	fs4,424(sp)
 1001230:	3a3a                	fld	fs4,424(sp)
 1001232:	3a3a                	fld	fs4,424(sp)
 1001234:	3a3a                	fld	fs4,424(sp)
 1001236:	3a3a                	fld	fs4,424(sp)
 1001238:	3a3a                	fld	fs4,424(sp)
 100123a:	3a3a                	fld	fs4,424(sp)
 100123c:	3a3a                	fld	fs4,424(sp)
 100123e:	3a3a                	fld	fs4,424(sp)
 1001240:	3a3a                	fld	fs4,424(sp)
 1001242:	3a3a                	fld	fs4,424(sp)
 1001244:	3a3a                	fld	fs4,424(sp)
 1001246:	3a3a                	fld	fs4,424(sp)
 1001248:	3a3a                	fld	fs4,424(sp)
 100124a:	3a3a                	fld	fs4,424(sp)
 100124c:	3a3a                	fld	fs4,424(sp)
 100124e:	3a3a                	fld	fs4,424(sp)
 1001250:	3a3a                	fld	fs4,424(sp)
 1001252:	3a3a                	fld	fs4,424(sp)
 1001254:	232a                	fld	ft6,136(sp)
 1001256:	2a232323          	sw	sp,678(t1)
 100125a:	2020                	fld	fs0,64(s0)
 100125c:	2020                	fld	fs0,64(s0)
 100125e:	2020                	fld	fs0,64(s0)
 1001260:	2020                	fld	fs0,64(s0)
 1001262:	2020                	fld	fs0,64(s0)
 1001264:	0000                	unimp
 1001266:	0000                	unimp
 1001268:	2020                	fld	fs0,64(s0)
 100126a:	2020                	fld	fs0,64(s0)
 100126c:	2020                	fld	fs0,64(s0)
 100126e:	2020                	fld	fs0,64(s0)
 1001270:	2020                	fld	fs0,64(s0)
 1001272:	2e20                	fld	fs0,88(a2)
 1001274:	2323232b          	p.sw	s2,550(t1!)
 1001278:	23232323          	sw	s2,550(t1)
 100127c:	23232323          	sw	s2,550(t1)
 1001280:	23232323          	sw	s2,550(t1)
 1001284:	23232323          	sw	s2,550(t1)
 1001288:	23232323          	sw	s2,550(t1)
 100128c:	23232323          	sw	s2,550(t1)
 1001290:	23232323          	sw	s2,550(t1)
 1001294:	23232323          	sw	s2,550(t1)
 1001298:	23232323          	sw	s2,550(t1)
 100129c:	23232323          	sw	s2,550(t1)
 10012a0:	23232323          	sw	s2,550(t1)
 10012a4:	23232323          	sw	s2,550(t1)
 10012a8:	23232323          	sw	s2,550(t1)
 10012ac:	23232323          	sw	s2,550(t1)
 10012b0:	23232323          	sw	s2,550(t1)
 10012b4:	23232323          	sw	s2,550(t1)
 10012b8:	2b232323          	sw	s2,678(t1)
 10012bc:	203a                	fld	ft0,392(sp)
 10012be:	2020                	fld	fs0,64(s0)
 10012c0:	2020                	fld	fs0,64(s0)
 10012c2:	2020                	fld	fs0,64(s0)
 10012c4:	2020                	fld	fs0,64(s0)
 10012c6:	2020                	fld	fs0,64(s0)
 10012c8:	0000                	unimp
 10012ca:	0000                	unimp
 10012cc:	2020                	fld	fs0,64(s0)
 10012ce:	2020                	fld	fs0,64(s0)
 10012d0:	2020                	fld	fs0,64(s0)
 10012d2:	2020                	fld	fs0,64(s0)
 10012d4:	2020                	fld	fs0,64(s0)
 10012d6:	2020                	fld	fs0,64(s0)
 10012d8:	2020                	fld	fs0,64(s0)
 10012da:	3a3a                	fld	fs4,424(sp)
 10012dc:	3d2d                	jal	1001116 <_etext+0xe4e>
 10012de:	2a23232b          	p.sw	sp,678(t1!)
 10012e2:	232b2b2b          	p.sw	s2,566(s6!)
 10012e6:	2b2b2b23          	sw	s2,694(s6)
 10012ea:	232a                	fld	ft6,136(sp)
 10012ec:	2b2a                	fld	fs6,136(sp)
 10012ee:	23232b2b          	p.sw	s2,566(t1!)
 10012f2:	2b2b2b2b          	p.sw	s2,694(s6!)
 10012f6:	2b2b2b23          	sw	s2,694(s6)
 10012fa:	2b23232b          	p.sw	s2,678(t1!)
 10012fe:	232b2b2b          	p.sw	s2,566(s6!)
 1001302:	2b2a                	fld	fs6,136(sp)
 1001304:	23232b2b          	p.sw	s2,566(t1!)
 1001308:	2b2b2b2b          	p.sw	s2,694(s6!)
 100130c:	2b2b2323          	sw	s2,678(s6)
 1001310:	2b23232b          	p.sw	s2,678(t1!)
 1001314:	232b2b2b          	p.sw	s2,566(s6!)
 1001318:	2d3d2b23          	sw	s3,726(s10)
 100131c:	3a3a                	fld	fs4,424(sp)
 100131e:	2020                	fld	fs0,64(s0)
 1001320:	2020                	fld	fs0,64(s0)
 1001322:	2020                	fld	fs0,64(s0)
 1001324:	2020                	fld	fs0,64(s0)
 1001326:	2020                	fld	fs0,64(s0)
 1001328:	2020                	fld	fs0,64(s0)
 100132a:	2020                	fld	fs0,64(s0)
 100132c:	0000                	unimp
 100132e:	0000                	unimp
 1001330:	2020                	fld	fs0,64(s0)
 1001332:	2020                	fld	fs0,64(s0)
 1001334:	2020                	fld	fs0,64(s0)
 1001336:	2020                	fld	fs0,64(s0)
 1001338:	2020                	fld	fs0,64(s0)
 100133a:	2020                	fld	fs0,64(s0)
 100133c:	2020                	fld	fs0,64(s0)
 100133e:	2020                	fld	fs0,64(s0)
 1001340:	2020                	fld	fs0,64(s0)
 1001342:	3d20                	fld	fs0,120(a0)
 1001344:	20203a23          	0x20203a23
 1001348:	2320                	fld	fs0,64(a4)
 100134a:	202a                	fld	ft0,136(sp)
 100134c:	2020                	fld	fs0,64(s0)
 100134e:	233a                	fld	ft6,392(sp)
 1001350:	203a                	fld	ft0,392(sp)
 1001352:	2020                	fld	fs0,64(s0)
 1001354:	2a2a                	fld	fs4,136(sp)
 1001356:	2020                	fld	fs0,64(s0)
 1001358:	2e20                	fld	fs0,88(a2)
 100135a:	20203a23          	0x20203a23
 100135e:	2a20                	fld	fs0,80(a2)
 1001360:	20202023          	sw	sp,512(zero) # 200 <__DYNAMIC+0x200>
 1001364:	232e                	fld	ft6,200(sp)
 1001366:	202d                	jal	1001390 <_etext+0x10c8>
 1001368:	2020                	fld	fs0,64(s0)
 100136a:	232a                	fld	ft6,136(sp)
 100136c:	2020                	fld	fs0,64(s0)
 100136e:	2e20                	fld	fs0,88(a2)
 1001370:	20202b23          	sw	sp,534(zero) # 216 <__DYNAMIC+0x216>
 1001374:	2b20                	fld	fs0,80(a4)
 1001376:	20202023          	sw	sp,512(zero) # 200 <__DYNAMIC+0x200>
 100137a:	2320                	fld	fs0,64(a4)
 100137c:	2020202b          	p.sw	sp,512(zero!) # 200 <__DYNAMIC+0x200>
 1001380:	2020                	fld	fs0,64(s0)
 1001382:	2020                	fld	fs0,64(s0)
 1001384:	2020                	fld	fs0,64(s0)
 1001386:	2020                	fld	fs0,64(s0)
 1001388:	2020                	fld	fs0,64(s0)
 100138a:	2020                	fld	fs0,64(s0)
 100138c:	2020                	fld	fs0,64(s0)
 100138e:	2020                	fld	fs0,64(s0)
 1001390:	0000                	unimp
 1001392:	0000                	unimp
 1001394:	0a0d                	addi	s4,s4,3
 1001396:	0000                	unimp
 1001398:	6548                	flw	fa0,12(a0)
 100139a:	6c6c                	flw	fa1,92(s0)
 100139c:	7266206f          	j	1063ac2 <stack+0x52e02>
 10013a0:	44206d6f          	jal	s10,10077e2 <_etext+0x751a>
 10013a4:	6469                	lui	s0,0x1a
 10013a6:	6361                	lui	t1,0x18
 10013a8:	6974                	flw	fa3,84(a0)
 10013aa:	6f532063          	p.beqimm	t1,-11,1001a8a <_etext+0x17c2>
 10013ae:	0a0d2143          	fmadd.d	ft2,fs10,ft0,ft1,rdn
	...
